(lp0
I49
aI67
aI67
aI67
aI67
aI67
aI67
aI67
aI65
aI67
aI67
aI67
aI67
aI67
aI67
aI67
aI67
aI67
aI67
aI67
aI67
aI67
aI67
aI68
aI67
aI67
aI67
aI67
aI67
aI67
aI67
aI67
aI67
aI67
aI58
aI67
aI67
aI67
aI67
aI67
aI67
aI67
aI67
aI67
aI67
aI67
aI67
aI67
aI67
aI67
aI67
aI67
aI67
aI67
aI67
aI67
aI67
aI67
aI67
aI67
aI67
aI67
aI67
aI67
aI67
aI68
aI67
aI67
aI67
aI67
aI67
aI67
aI67
aI67
aI67
aI67
aI67
aI67
aI66
aI67
aI67
aI67
aI67
aI67
aI67
aI67
aI67
aI67
aI67
aI67
aI67
aI67
aI67
aI67
aI67
aI42
aI68
aI67
aI67
aI67
aI67
aI67
aI67
aI67
aI67
aI67
aI67
aI67
aI68
aI67
aI67
aI67
aI67
aI67
aI67
aI67
aI67
aI67
aI67
aI67
aI67
aI67
aI67
aI67
aI67
aI67
aI67
aI67
aI67
aI67
aI67
aI67
aI67
aI67
aI67
aI67
aI67
aI67
aI67
aI67
aI67
aI67
aI67
aI67
aI67
aI67
aI67
aI67
aI67
aI67
aI67
aI67
aI66
aI67
aI67
aI67
aI67
aI67
aI67
aI67
aI67
aI66
aI66
aI67
aI42
aI67
aI67
aI67
aI67
aI67
aI67
aI67
aI67
aI67
aI67
aI66
aI67
aI67
aI67
aI67
aI67
aI67
aI67
aI67
aI67
aI67
aI67
aI67
aI67
aI67
aI67
aI68
aI67
aI67
aI67
aI67
aI67
aI67
aI67
aI67
aI67
aI67
aI67
aI67
aI67
aI67
aI67
aI67
aI67
aI67
aI67
aI67
aI67
aI67
aI67
aI67
aI67
aI67
aI67
aI67
aI65
aI67
aI67
aI67
aI67
aI67
aI67
aI67
aI67
aI67
aI67
aI67
aI67
aI67
aI67
aI67
aI67
aI67
aI67
aI67
aI67
aI67
aI67
aI67
aI67
aI67
aI67
aI67
aI67
aI67
aI67
aI67
aI67
aI67
aI67
aI67
aI67
aI67
aI67
aI67
aI67
aI67
aI67
aI67
aI67
aI68
aI66
aI67
aI68
aI67
aI67
aI67
aI67
aI67
aI67
aI67
aI67
aI67
aI67
aI67
aI67
aI67
aI67
aI67
aI67
aI67
aI67
aI67
aI67
aI67
aI67
aI68
aI67
aI67
aI67
aI67
aI67
aI67
aI67
aI67
aI67
aI67
aI67
aI67
aI67
aI67
aI58
aI67
aI67
aI67
aI67
aI67
aI67
aI67
aI67
aI67
aI67
aI67
aI67
aI67
aI67
aI67
aI65
aI67
aI67
aI67
aI67
aI67
aI67
aI67
aI67
aI67
aI67
aI65
aI67
aI67
aI67
aI67
aI67
aI67
aI67
aI67
aI67
aI67
aI67
aI67
aI67
aI67
aI67
aI67
aI67
aI67
aI67
aI67
aI67
aI67
aI46
aI67
aI67
aI67
aI67
aI67
aI67
aI67
aI67
aI67
aI67
aI67
aI67
aI67
aI67
aI67
aI67
aI67
aI67
aI67
aI67
aI67
aI67
aI67
aI67
aI67
aI65
aI67
aI67
aI67
aI67
aI67
aI67
aI67
aI67
aI67
aI67
aI67
aI67
aI67
aI67
aI67
aI67
aI67
aI67
aI68
aI67
aI67
aI66
aI67
aI67
aI67
aI67
aI67
aI67
aI67
aI66
aI68
aI67
aI67
aI46
aI67
aI67
aI67
aI67
aI67
aI67
aI67
aI67
aI67
aI67
aI67
aI67
aI67
aI67
aI67
aI67
aI67
aI67
aI67
aI67
aI68
aI67
aI67
aI67
aI67
aI67
aI67
aI68
aI67
aI68
aI67
aI67
aI68
aI67
aI67
aI67
aI67
aI67
aI67
aI67
aI67
aI67
aI67
aI42
aI46
aI67
aI67
aI67
aI67
aI67
aI67
aI67
aI67
aI67
aI67
aI66
aI67
aI67
aI67
aI67
aI67
aI67
aI67
aI67
aI67
aI67
aI68
aI67
aI61
aI67
aI67
aI67
aI67
aI67
aI67
aI67
aI67
aI67
aI67
aI67
aI67
aI67
aI67
aI66
aI67
aI67
aI67
aI67
aI67
aI68
aI67
aI68
aI67
aI67
aI67
aI67
aI67
aI67
aI67
aI68
aI67
aI67
aI67
aI67
aI67
aI67
aI67
aI67
aI67
aI67
aI68
aI67
aI67
aI67
aI67
aI67
aI67
aI67
aI67
aI67
aI67
aI67
aI67
aI67
aI66
aI67
aI67
aI67
aI67
aI67
aI67
aI67
aI67
aI67
aI67
aI67
aI67
aI67
aI67
aI67
aI67
aI67
aI67
aI67
aI67
aI67
aI67
aI61
aI67
aI67
aI67
aI67
aI67
aI67
aI67
aI67
aI67
aI67
aI67
aI67
aI67
aI67
aI67
aI67
aI61
aI67
aI67
aI67
aI67
aI67
aI67
aI67
aI67
aI67
aI67
aI67
aI67
aI67
aI67
aI67
aI67
aI67
aI67
aI67
aI67
aI67
aI67
aI67
aI67
aI67
aI67
aI67
aI67
aI67
aI67
aI67
aI67
aI67
aI67
aI67
aI67
aI67
aI67
aI67
aI67
aI67
aI61
aI67
aI67
aI67
aI67
aI67
aI67
aI67
aI67
aI67
aI68
aI67
aI67
aI67
aI67
aI67
aI67
aI67
aI67
aI67
aI67
aI67
aI67
aI67
aI67
aI67
aI68
aI67
aI67
aI67
aI67
aI67
aI67
aI67
aI67
aI67
aI67
aI67
aI67
aI67
aI67
aI67
aI67
aI67
aI67
aI67
aI67
aI67
aI67
aI67
aI67
aI67
aI67
aI67
aI67
aI67
aI67
aI67
aI67
aI67
aI67
aI67
aI67
aI67
aI67
aI61
aI67
aI67
aI67
aI67
aI67
aI67
aI67
aI67
aI67
aI67
aI67
aI67
aI67
aI67
aI67
aI67
aI67
aI67
aI67
aI67
aI67
aI67
aI67
aI67
aI67
aI67
aI67
aI67
aI67
aI67
aI67
aI67
aI67
aI67
aI67
aI67
aI67
aI67
aI67
aI66
aI67
aI67
aI67
aI67
aI67
aI67
aI67
aI67
aI67
aI67
aI67
aI67
aI67
aI67
aI67
aI67
aI67
aI67
aI66
aI42
aI67
aI67
aI67
aI67
aI67
aI67
aI67
aI67
aI67
aI67
aI67
aI67
aI67
aI67
aI67
aI67
aI67
aI67
aI67
aI67
aI67
aI61
aI67
aI67
aI67
aI67
aI67
aI67
aI67
aI67
aI67
aI67
aI67
aI67
aI67
aI67
aI67
aI67
aI67
aI67
aI67
aI67
aI67
aI67
aI67
aI67
aI67
aI67
aI67
aI67
aI67
aI67
aI67
aI67
aI67
aI67
aI67
aI67
aI42
aI66
aI67
aI67
aI67
aI68
aI67
aI67
aI67
aI67
aI67
aI67
aI67
aI67
aI67
aI67
aI67
aI66
aI67
aI67
aI67
aI67
aI67
aI67
aI67
aI67
aI67
aI67
aI67
aI67
aI67
aI67
aI67
aI67
aI67
aI67
aI67
aI67
aI67
aI67
aI67
aI58
aI67
aI67
aI67
aI67
aI67
aI67
aI67
aI67
aI68
aI67
aI67
aI67
aI67
aI67
aI67
aI67
aI67
aI67
aI67
aI67
aI67
aI67
aI67
aI67
aI67
aI67
aI67
aI67
aI67
aI67
aI67
aI67
aI67
aI67
aI67
aI67
aI67
aI67
aI67
aI67
aI67
aI67
aI67
aI67
aI67
aI68
aI67
aI67
aI67
aI67
aI67
aI67
aI67
aI67
aI67
aI67
aI67
aI67
aI67
aI67
aI67
aI67
aI67
aI67
aI67
aI67
aI67
aI67
aI67
aI67
aI67
aI67
aI75
aI67
aI67
aI67
aI67
aI67
aI67
aI67
aI67
aI42
aI67
aI67
aI67
aI67
aI67
aI67
aI67
aI67
aI46
aI67
aI67
aI67
aI67
aI67
aI61
aI66
aI58
aI68
aI68
aI68
aI68
aI68
aI68
aI68
aI68
aI68
aI68
aI68
aI68
aI68
aI68
aI68
aI68
aI68
aI68
aI68
aI68
aI68
aI68
aI68
aI68
aI68
aI68
aI68
aI68
aI68
aI68
aI68
aI68
aI68
aI68
aI65
aI68
aI68
aI68
aI68
aI68
aI68
aI68
aI68
aI68
aI68
aI68
aI68
aI68
aI68
aI68
aI68
aI68
aI68
aI68
aI67
aI68
aI68
aI68
aI68
aI68
aI68
aI68
aI68
aI68
aI68
aI68
aI68
aI68
aI68
aI68
aI68
aI68
aI68
aI58
aI68
aI68
aI68
aI68
aI68
aI68
aI68
aI68
aI68
aI68
aI68
aI68
aI68
aI68
aI68
aI68
aI68
aI68
aI68
aI68
aI68
aI68
aI68
aI68
aI68
aI68
aI68
aI68
aI68
aI68
aI68
aI68
aI68
aI68
aI68
aI68
aI68
aI67
aI68
aI68
aI68
aI68
aI68
aI68
aI68
aI68
aI68
aI68
aI68
aI68
aI68
aI68
aI68
aI68
aI68
aI68
aI68
aI68
aI68
aI68
aI68
aI68
aI68
aI68
aI68
aI68
aI68
aI42
aI68
aI68
aI68
aI68
aI68
aI68
aI68
aI68
aI68
aI68
aI68
aI68
aI68
aI68
aI68
aI68
aI68
aI68
aI68
aI67
aI68
aI68
aI68
aI68
aI68
aI68
aI68
aI66
aI68
aI68
aI69
aI68
aI68
aI69
aI68
aI68
aI68
aI68
aI68
aI46
aI68
aI68
aI68
aI67
aI68
aI68
aI68
aI68
aI68
aI68
aI68
aI68
aI68
aI42
aI68
aI68
aI68
aI68
aI68
aI68
aI68
aI68
aI68
aI68
aI68
aI68
aI68
aI68
aI68
aI68
aI66
aI68
aI68
aI68
aI68
aI69
aI68
aI68
aI68
aI68
aI69
aI68
aI68
aI68
aI67
aI68
aI68
aI68
aI68
aI68
aI68
aI68
aI68
aI68
aI68
aI68
aI68
aI68
aI68
aI68
aI68
aI68
aI67
aI68
aI68
aI68
aI68
aI68
aI68
aI68
aI68
aI68
aI68
aI68
aI68
aI68
aI68
aI68
aI68
aI68
aI68
aI68
aI68
aI68
aI68
aI68
aI68
aI68
aI68
aI68
aI68
aI68
aI68
aI68
aI68
aI68
aI68
aI68
aI68
aI68
aI68
aI68
aI68
aI68
aI68
aI68
aI68
aI68
aI46
aI68
aI68
aI68
aI68
aI69
aI68
aI68
aI68
aI68
aI68
aI68
aI68
aI68
aI68
aI68
aI68
aI68
aI68
aI58
aI68
aI68
aI68
aI68
aI68
aI68
aI68
aI68
aI68
aI68
aI68
aI68
aI68
aI68
aI68
aI69
aI69
aI69
aI69
aI69
aI68
aI69
aI69
aI69
aI69
aI69
aI69
aI69
aI69
aI69
aI69
aI69
aI69
aI69
aI69
aI69
aI69
aI69
aI69
aI69
aI69
aI69
aI69
aI69
aI69
aI67
aI69
aI69
aI69
aI69
aI69
aI68
aI69
aI69
aI69
aI75
aI69
aI69
aI69
aI69
aI69
aI69
aI69
aI69
aI69
aI69
aI69
aI69
aI69
aI69
aI69
aI42
aI69
aI69
aI69
aI69
aI69
aI69
aI69
aI67
aI68
aI42
aI68
aI68
aI68
aI69
aI69
aI69
aI69
aI69
aI69
aI69
aI69
aI69
aI69
aI69
aI69
aI69
aI69
aI69
aI69
aI69
aI69
aI69
aI69
aI69
aI69
aI61
aI69
aI69
aI69
aI69
aI69
aI69
aI69
aI69
aI69
aI69
aI69
aI67
aI69
aI69
aI69
aI69
aI69
aI69
aI69
aI69
aI69
aI69
aI69
aI69
aI69
aI69
aI69
aI69
aI69
aI42
aI69
aI69
aI67
aI77
aI69
aI69
aI69
aI69
aI69
aI69
aI69
aI69
aI69
aI69
aI69
aI69
aI69
aI69
aI69
aI69
aI69
aI69
aI69
aI69
aI69
aI69
aI69
aI69
aI69
aI69
aI69
aI58
aI58
aI69
aI69
aI69
aI69
aI69
aI69
aI69
aI69
aI69
aI69
aI69
aI69
aI69
aI69
aI69
aI69
aI69
aI69
aI69
aI68
aI69
aI58
aI77
aI77
aI77
aI77
aI77
aI77
aI77
aI77
aI77
aI77
aI77
aI77
aI77
aI77
aI77
aI77
aI68
aI77
aI77
aI77
aI77
aI77
aI77
aI77
aI77
aI77
aI77
aI77
aI77
aI77
aI77
aI77
aI77
aI77
aI77
aI77
aI77
aI77
aI77
aI77
aI77
aI77
aI77
aI77
aI77
aI69
aI77
aI77
aI77
aI77
aI77
aI77
aI77
aI77
aI77
aI68
aI77
aI77
aI77
aI77
aI77
aI77
aI77
aI77
aI77
aI77
aI77
aI77
aI77
aI77
aI77
aI77
aI77
aI77
aI77
aI77
aI77
aI77
aI88
aI77
aI77
aI77
aI69
aI91
aI77
aI77
aI77
aI77
aI77
aI77
aI77
aI77
aI77
aI76
aI77
aI76
aI77
aI77
aI77
aI68
aI77
aI77
aI77
aI77
aI77
aI77
aI77
aI77
aI77
aI77
aI77
aI77
aI77
aI77
aI77
aI77
aI77
aI77
aI77
aI77
aI77
aI77
aI77
aI77
aI77
aI77
aI77
aI76
aI77
aI77
aI77
aI77
aI77
aI77
aI77
aI77
aI77
aI77
aI77
aI67
aI77
aI77
aI77
aI77
aI61
aI77
aI77
aI77
aI61
aI77
aI77
aI77
aI77
aI77
aI77
aI77
aI77
aI77
aI77
aI68
aI77
aI77
aI77
aI77
aI77
aI77
aI77
aI77
aI77
aI77
aI77
aI77
aI77
aI77
aI77
aI77
aI77
aI77
aI77
aI77
aI77
aI77
aI77
aI77
aI77
aI77
aI76
aI77
aI77
aI77
aI69
aI77
aI77
aI77
aI77
aI77
aI77
aI77
aI77
aI77
aI76
aI77
aI77
aI77
aI77
aI77
aI77
aI77
aI77
aI77
aI77
aI77
aI77
aI77
aI77
aI77
aI77
aI77
aI77
aI77
aI77
aI76
aI77
aI77
aI77
aI77
aI77
aI77
aI77
aI67
aI77
aI77
aI66
aI77
aI77
aI77
aI77
aI77
aI77
aI77
aI68
aI77
aI77
aI77
aI77
aI77
aI77
aI77
aI77
aI77
aI77
aI77
aI77
aI77
aI76
aI68
aI77
aI77
aI77
aI77
aI77
aI77
aI91
aI77
aI77
aI77
aI77
aI77
aI69
aI77
aI77
aI77
aI77
aI77
aI77
aI77
aI77
aI77
aI69
aI77
aI66
aI77
aI77
aI77
aI77
aI77
aI77
aI77
aI77
aI77
aI77
aI77
aI77
aI77
aI77
aI77
aI77
aI77
aI77
aI77
aI77
aI77
aI77
aI77
aI77
aI68
aI77
aI77
aI77
aI77
aI77
aI77
aI86
aI77
aI77
aI68
aI66
aI66
aI77
aI77
aI77
aI77
aI77
aI77
aI77
aI77
aI77
aI77
aI77
aI77
aI77
aI77
aI77
aI77
aI77
aI92
aI77
aI77
aI77
aI77
aI58
aI77
aI77
aI77
aI77
aI77
aI77
aI77
aI77
aI86
aI67
aI77
aI77
aI77
aI77
aI77
aI77
aI77
aI77
aI77
aI77
aI68
aI77
aI77
aI77
aI77
aI77
aI68
aI77
aI77
aI77
aI76
aI77
aI77
aI77
aI68
aI77
aI77
aI77
aI77
aI77
aI77
aI77
aI77
aI77
aI77
aI68
aI77
aI77
aI77
aI77
aI77
aI77
aI77
aI77
aI77
aI77
aI77
aI46
aI77
aI77
aI77
aI77
aI77
aI58
aI77
aI77
aI77
aI77
aI77
aI77
aI77
aI58
aI77
aI77
aI77
aI77
aI77
aI77
aI77
aI58
aI77
aI77
aI77
aI77
aI77
aI77
aI77
aI77
aI77
aI77
aI77
aI61
aI77
aI77
aI77
aI60
aI77
aI77
aI77
aI77
aI77
aI77
aI77
aI77
aI77
aI77
aI77
aI77
aI77
aI86
aI77
aI77
aI77
aI77
aI77
aI77
aI77
aI77
aI77
aI77
aI77
aI77
aI77
aI77
aI77
aI77
aI77
aI77
aI77
aI77
aI77
aI77
aI67
aI77
aI77
aI77
aI77
aI77
aI77
aI77
aI77
aI77
aI67
aI77
aI77
aI77
aI77
aI77
aI77
aI77
aI77
aI67
aI77
aI77
aI58
aI77
aI77
aI77
aI77
aI77
aI77
aI77
aI77
aI77
aI76
aI77
aI77
aI77
aI77
aI77
aI77
aI77
aI67
aI77
aI77
aI77
aI77
aI77
aI77
aI77
aI77
aI77
aI77
aI68
aI77
aI77
aI77
aI67
aI77
aI77
aI77
aI77
aI77
aI77
aI77
aI77
aI77
aI77
aI77
aI77
aI77
aI77
aI77
aI77
aI77
aI77
aI77
aI77
aI77
aI77
aI77
aI77
aI77
aI77
aI77
aI77
aI77
aI77
aI77
aI77
aI77
aI77
aI77
aI77
aI77
aI77
aI77
aI77
aI77
aI77
aI77
aI77
aI77
aI77
aI67
aI77
aI76
aI68
aI77
aI77
aI77
aI77
aI77
aI77
aI77
aI77
aI77
aI77
aI92
aI77
aI76
aI77
aI77
aI77
aI77
aI77
aI77
aI77
aI77
aI86
aI77
aI77
aI77
aI77
aI77
aI77
aI77
aI77
aI76
aI77
aI77
aI77
aI77
aI77
aI77
aI77
aI69
aI42
aI77
aI77
aI77
aI77
aI77
aI77
aI77
aI77
aI77
aI77
aI77
aI77
aI77
aI77
aI77
aI77
aI77
aI77
aI67
aI77
aI68
aI77
aI77
aI77
aI77
aI77
aI67
aI77
aI77
aI77
aI77
aI77
aI92
aI77
aI77
aI77
aI77
aI77
aI77
aI77
aI77
aI77
aI77
aI76
aI77
aI77
aI77
aI69
aI77
aI77
aI77
aI77
aI77
aI77
aI77
aI77
aI77
aI77
aI77
aI77
aI77
aI77
aI77
aI77
aI77
aI77
aI77
aI77
aI77
aI77
aI77
aI77
aI77
aI77
aI77
aI77
aI77
aI77
aI42
aI68
aI77
aI77
aI77
aI67
aI77
aI77
aI77
aI77
aI68
aI77
aI77
aI77
aI77
aI77
aI77
aI68
aI77
aI86
aI77
aI77
aI77
aI77
aI77
aI77
aI77
aI77
aI77
aI77
aI77
aI77
aI77
aI77
aI77
aI68
aI77
aI77
aI77
aI77
aI77
aI67
aI77
aI77
aI77
aI77
aI77
aI77
aI77
aI77
aI61
aI77
aI77
aI77
aI42
aI77
aI91
aI77
aI77
aI77
aI46
aI77
aI76
aI77
aI77
aI77
aI77
aI77
aI77
aI77
aI77
aI77
aI77
aI46
aI77
aI77
aI76
aI77
aI77
aI77
aI77
aI77
aI77
aI77
aI77
aI77
aI77
aI77
aI77
aI77
aI77
aI77
aI77
aI77
aI77
aI68
aI68
aI77
aI77
aI77
aI77
aI76
aI77
aI77
aI77
aI91
aI77
aI77
aI77
aI77
aI77
aI77
aI77
aI77
aI77
aI91
aI77
aI77
aI77
aI77
aI77
aI77
aI77
aI76
aI77
aI77
aI67
aI77
aI77
aI77
aI66
aI77
aI77
aI77
aI61
aI77
aI77
aI77
aI68
aI77
aI77
aI69
aI77
aI77
aI77
aI77
aI77
aI77
aI77
aI77
aI77
aI77
aI77
aI77
aI77
aI77
aI77
aI77
aI77
aI77
aI42
aI77
aI77
aI77
aI77
aI77
aI77
aI77
aI77
aI77
aI77
aI77
aI77
aI77
aI77
aI77
aI77
aI77
aI77
aI77
aI67
aI77
aI68
aI77
aI77
aI77
aI77
aI77
aI77
aI77
aI77
aI58
aI77
aI77
aI77
aI77
aI77
aI91
aI68
aI77
aI77
aI77
aI69
aI77
aI77
aI77
aI77
aI68
aI77
aI77
aI77
aI77
aI77
aI77
aI77
aI77
aI77
aI77
aI77
aI77
aI77
aI77
aI77
aI77
aI77
aI77
aI77
aI91
aI77
aI77
aI77
aI77
aI77
aI77
aI77
aI77
aI69
aI77
aI58
aI77
aI67
aI77
aI77
aI77
aI77
aI77
aI77
aI77
aI76
aI77
aI77
aI67
aI77
aI77
aI77
aI77
aI77
aI77
aI77
aI86
aI77
aI77
aI77
aI77
aI77
aI77
aI77
aI77
aI77
aI77
aI77
aI77
aI77
aI77
aI77
aI77
aI77
aI77
aI77
aI77
aI77
aI77
aI77
aI77
aI77
aI77
aI77
aI77
aI77
aI77
aI77
aI86
aI77
aI77
aI77
aI77
aI77
aI77
aI77
aI42
aI77
aI77
aI77
aI77
aI77
aI77
aI77
aI77
aI77
aI77
aI77
aI77
aI77
aI77
aI77
aI77
aI77
aI77
aI77
aI76
aI77
aI77
aI77
aI77
aI76
aI77
aI77
aI77
aI77
aI77
aI77
aI77
aI77
aI77
aI77
aI77
aI77
aI67
aI77
aI77
aI77
aI77
aI68
aI77
aI77
aI68
aI77
aI77
aI77
aI77
aI77
aI77
aI77
aI77
aI77
aI77
aI77
aI77
aI77
aI77
aI66
aI77
aI77
aI67
aI77
aI77
aI77
aI77
aI77
aI77
aI77
aI77
aI77
aI77
aI77
aI77
aI77
aI77
aI77
aI77
aI77
aI68
aI77
aI77
aI77
aI77
aI77
aI77
aI69
aI77
aI86
aI77
aI77
aI77
aI76
aI69
aI77
aI77
aI91
aI77
aI66
aI77
aI77
aI77
aI77
aI77
aI69
aI69
aI77
aI77
aI77
aI77
aI77
aI77
aI77
aI77
aI77
aI77
aI77
aI77
aI77
aI77
aI69
aI77
aI77
aI77
aI77
aI69
aI77
aI77
aI77
aI77
aI77
aI77
aI77
aI77
aI77
aI76
aI77
aI77
aI77
aI77
aI77
aI69
aI77
aI77
aI77
aI68
aI77
aI77
aI77
aI76
aI77
aI69
aI69
aI77
aI67
aI77
aI77
aI68
aI77
aI76
aI77
aI77
aI77
aI77
aI77
aI77
aI77
aI76
aI76
aI77
aI46
aI59
aI77
aI77
aI77
aI77
aI77
aI77
aI77
aI68
aI77
aI67
aI77
aI77
aI91
aI77
aI77
aI77
aI77
aI77
aI77
aI77
aI77
aI77
aI77
aI76
aI77
aI77
aI77
aI77
aI77
aI77
aI77
aI77
aI77
aI77
aI77
aI77
aI77
aI77
aI77
aI77
aI77
aI68
aI77
aI77
aI77
aI77
aI77
aI69
aI77
aI77
aI77
aI77
aI68
aI78
aI77
aI77
aI77
aI77
aI77
aI77
aI77
aI77
aI69
aI77
aI77
aI77
aI77
aI46
aI77
aI77
aI77
aI77
aI77
aI77
aI77
aI77
aI69
aI77
aI77
aI77
aI77
aI77
aI77
aI77
aI86
aI77
aI77
aI77
aI91
aI77
aI77
aI77
aI77
aI69
aI77
aI77
aI77
aI77
aI77
aI77
aI77
aI77
aI77
aI77
aI77
aI77
aI77
aI77
aI77
aI77
aI77
aI77
aI77
aI77
aI77
aI77
aI68
aI77
aI77
aI77
aI77
aI68
aI77
aI77
aI77
aI69
aI77
aI77
aI77
aI77
aI77
aI77
aI77
aI77
aI77
aI77
aI77
aI77
aI42
aI77
aI77
aI77
aI77
aI77
aI77
aI77
aI77
aI77
aI77
aI77
aI77
aI77
aI77
aI77
aI77
aI77
aI77
aI77
aI77
aI77
aI77
aI77
aI76
aI77
aI77
aI77
aI67
aI77
aI77
aI77
aI77
aI77
aI77
aI77
aI77
aI77
aI77
aI77
aI77
aI77
aI68
aI77
aI77
aI77
aI77
aI77
aI77
aI77
aI77
aI68
aI77
aI77
aI68
aI77
aI77
aI77
aI77
aI77
aI77
aI77
aI67
aI77
aI77
aI77
aI77
aI77
aI77
aI61
aI77
aI77
aI77
aI77
aI77
aI77
aI77
aI77
aI77
aI77
aI46
aI77
aI77
aI76
aI76
aI76
aI76
aI67
aI77
aI77
aI77
aI77
aI77
aI77
aI77
aI77
aI77
aI77
aI66
aI77
aI77
aI77
aI77
aI77
aI77
aI77
aI77
aI77
aI77
aI77
aI77
aI77
aI77
aI77
aI77
aI77
aI77
aI77
aI77
aI77
aI69
aI77
aI77
aI77
aI77
aI77
aI77
aI77
aI77
aI77
aI77
aI77
aI91
aI77
aI77
aI77
aI77
aI77
aI77
aI77
aI77
aI77
aI77
aI77
aI77
aI77
aI67
aI62
aI77
aI77
aI77
aI77
aI77
aI77
aI77
aI77
aI77
aI77
aI77
aI77
aI77
aI77
aI77
aI77
aI77
aI77
aI77
aI77
aI77
aI42
aI77
aI68
aI77
aI77
aI77
aI77
aI77
aI77
aI77
aI77
aI42
aI77
aI77
aI77
aI77
aI77
aI77
aI77
aI77
aI77
aI77
aI77
aI76
aI77
aI77
aI77
aI77
aI77
aI77
aI77
aI77
aI77
aI77
aI77
aI77
aI77
aI77
aI77
aI77
aI77
aI77
aI77
aI77
aI77
aI77
aI77
aI77
aI77
aI77
aI77
aI77
aI77
aI77
aI67
aI77
aI77
aI77
aI77
aI77
aI77
aI77
aI77
aI77
aI77
aI62
aI77
aI77
aI77
aI77
aI77
aI77
aI77
aI77
aI77
aI77
aI77
aI69
aI77
aI67
aI77
aI77
aI77
aI69
aI77
aI77
aI77
aI76
aI77
aI77
aI68
aI91
aI77
aI77
aI77
aI77
aI77
aI77
aI77
aI77
aI77
aI77
aI77
aI77
aI77
aI76
aI77
aI77
aI77
aI77
aI77
aI77
aI77
aI77
aI77
aI67
aI77
aI77
aI77
aI77
aI77
aI77
aI67
aI77
aI77
aI68
aI77
aI77
aI77
aI77
aI77
aI77
aI77
aI62
aI68
aI77
aI77
aI77
aI77
aI77
aI77
aI77
aI77
aI77
aI77
aI77
aI77
aI62
aI77
aI67
aI67
aI77
aI77
aI77
aI77
aI77
aI77
aI77
aI77
aI77
aI77
aI77
aI77
aI77
aI77
aI77
aI77
aI77
aI77
aI77
aI42
aI77
aI77
aI77
aI77
aI77
aI68
aI77
aI77
aI77
aI77
aI77
aI77
aI77
aI77
aI77
aI77
aI77
aI77
aI77
aI77
aI77
aI77
aI77
aI77
aI77
aI77
aI77
aI77
aI77
aI76
aI77
aI77
aI77
aI77
aI77
aI69
aI77
aI77
aI77
aI77
aI77
aI77
aI77
aI77
aI77
aI77
aI77
aI77
aI77
aI77
aI76
aI67
aI77
aI77
aI77
aI77
aI77
aI77
aI77
aI77
aI77
aI77
aI77
aI77
aI77
aI77
aI77
aI77
aI77
aI77
aI77
aI77
aI77
aI77
aI77
aI77
aI77
aI77
aI77
aI77
aI77
aI46
aI77
aI77
aI77
aI77
aI77
aI77
aI77
aI77
aI77
aI77
aI77
aI77
aI77
aI77
aI77
aI67
aI77
aI77
aI77
aI77
aI77
aI77
aI77
aI77
aI77
aI66
aI77
aI76
aI77
aI77
aI77
aI77
aI70
aI77
aI77
aI76
aI67
aI77
aI77
aI77
aI77
aI77
aI77
aI77
aI77
aI77
aI77
aI77
aI68
aI77
aI77
aI77
aI77
aI77
aI77
aI77
aI77
aI77
aI77
aI68
aI77
aI77
aI77
aI77
aI77
aI77
aI77
aI77
aI77
aI77
aI77
aI77
aI77
aI77
aI77
aI77
aI77
aI68
aI77
aI77
aI77
aI77
aI77
aI77
aI77
aI77
aI77
aI77
aI77
aI77
aI77
aI77
aI58
aI77
aI77
aI77
aI77
aI77
aI77
aI77
aI77
aI77
aI77
aI77
aI77
aI77
aI77
aI77
aI77
aI77
aI69
aI77
aI58
aI77
aI77
aI77
aI77
aI77
aI77
aI77
aI77
aI77
aI77
aI76
aI77
aI77
aI77
aI77
aI77
aI62
aI77
aI68
aI77
aI77
aI77
aI77
aI69
aI77
aI77
aI77
aI77
aI77
aI77
aI77
aI77
aI77
aI77
aI77
aI77
aI77
aI77
aI77
aI77
aI77
aI77
aI77
aI77
aI91
aI77
aI77
aI77
aI76
aI77
aI77
aI77
aI77
aI77
aI77
aI77
aI77
aI77
aI77
aI77
aI77
aI77
aI77
aI77
aI77
aI77
aI77
aI42
aI77
aI69
aI77
aI77
aI77
aI77
aI77
aI77
aI77
aI77
aI77
aI77
aI77
aI77
aI77
aI77
aI77
aI77
aI77
aI69
aI77
aI46
aI77
aI77
aI77
aI77
aI77
aI77
aI77
aI77
aI77
aI77
aI68
aI77
aI77
aI77
aI77
aI77
aI77
aI77
aI77
aI77
aI77
aI77
aI77
aI77
aI77
aI77
aI77
aI77
aI77
aI77
aI77
aI77
aI77
aI77
aI77
aI77
aI77
aI77
aI46
aI68
aI77
aI76
aI77
aI77
aI77
aI77
aI77
aI77
aI77
aI77
aI69
aI77
aI77
aI77
aI68
aI69
aI77
aI77
aI77
aI77
aI77
aI77
aI69
aI58
aI77
aI77
aI77
aI77
aI77
aI46
aI77
aI77
aI77
aI77
aI77
aI77
aI77
aI77
aI77
aI77
aI77
aI77
aI77
aI77
aI77
aI77
aI68
aI77
aI46
aI77
aI77
aI77
aI77
aI77
aI77
aI77
aI77
aI77
aI68
aI77
aI77
aI77
aI77
aI77
aI77
aI77
aI77
aI77
aI77
aI77
aI77
aI77
aI77
aI77
aI77
aI77
aI77
aI77
aI77
aI77
aI77
aI77
aI62
aI77
aI77
aI77
aI77
aI68
aI77
aI77
aI77
aI69
aI77
aI77
aI77
aI77
aI77
aI77
aI77
aI77
aI77
aI77
aI77
aI69
aI77
aI76
aI77
aI77
aI77
aI77
aI77
aI77
aI77
aI77
aI77
aI46
aI77
aI77
aI77
aI77
aI77
aI77
aI67
aI67
aI77
aI77
aI77
aI77
aI77
aI77
aI77
aI77
aI77
aI77
aI77
aI68
aI77
aI77
aI77
aI77
aI77
aI77
aI77
aI77
aI76
aI46
aI77
aI74
aI77
aI77
aI77
aI77
aI77
aI77
aI77
aI77
aI77
aI77
aI77
aI77
aI77
aI69
aI77
aI77
aI77
aI77
aI77
aI77
aI77
aI77
aI77
aI77
aI68
aI77
aI77
aI76
aI77
aI58
aI77
aI77
aI77
aI77
aI77
aI77
aI77
aI77
aI77
aI77
aI77
aI77
aI77
aI77
aI77
aI77
aI78
aI77
aI77
aI77
aI77
aI58
aI77
aI77
aI77
aI77
aI77
aI77
aI77
aI77
aI77
aI77
aI77
aI77
aI77
aI77
aI77
aI77
aI77
aI77
aI77
aI67
aI77
aI77
aI77
aI77
aI76
aI76
aI77
aI77
aI77
aI77
aI77
aI77
aI77
aI77
aI77
aI77
aI77
aI77
aI77
aI77
aI77
aI77
aI77
aI77
aI77
aI77
aI77
aI77
aI77
aI77
aI76
aI76
aI77
aI77
aI77
aI77
aI77
aI77
aI77
aI77
aI77
aI77
aI77
aI77
aI77
aI77
aI77
aI77
aI77
aI58
aI77
aI77
aI77
aI77
aI77
aI77
aI77
aI58
aI77
aI77
aI77
aI77
aI77
aI77
aI67
aI77
aI77
aI77
aI77
aI77
aI77
aI77
aI66
aI77
aI76
aI77
aI77
aI77
aI77
aI77
aI77
aI77
aI77
aI77
aI77
aI77
aI77
aI77
aI77
aI77
aI77
aI77
aI77
aI77
aI77
aI66
aI77
aI77
aI77
aI77
aI77
aI77
aI77
aI77
aI77
aI68
aI66
aI77
aI77
aI77
aI77
aI77
aI77
aI77
aI66
aI77
aI77
aI77
aI77
aI77
aI77
aI77
aI77
aI77
aI77
aI77
aI77
aI77
aI77
aI77
aI77
aI77
aI77
aI77
aI77
aI77
aI69
aI77
aI77
aI77
aI77
aI77
aI77
aI77
aI42
aI77
aI77
aI77
aI77
aI77
aI77
aI77
aI77
aI77
aI77
aI77
aI77
aI77
aI77
aI77
aI69
aI77
aI77
aI77
aI77
aI77
aI67
aI77
aI77
aI77
aI68
aI77
aI77
aI77
aI77
aI77
aI77
aI46
aI77
aI77
aI77
aI77
aI77
aI66
aI77
aI77
aI77
aI62
aI77
aI77
aI77
aI77
aI77
aI77
aI76
aI77
aI67
aI77
aI77
aI77
aI77
aI77
aI77
aI77
aI77
aI77
aI77
aI77
aI91
aI77
aI77
aI77
aI77
aI77
aI77
aI77
aI77
aI66
aI77
aI77
aI77
aI77
aI77
aI77
aI77
aI77
aI77
aI77
aI77
aI77
aI77
aI68
aI77
aI77
aI77
aI77
aI77
aI77
aI77
aI76
aI77
aI77
aI77
aI77
aI77
aI68
aI77
aI77
aI77
aI77
aI77
aI66
aI77
aI77
aI77
aI77
aI77
aI77
aI77
aI77
aI77
aI77
aI58
aI77
aI77
aI67
aI77
aI77
aI77
aI77
aI68
aI77
aI77
aI77
aI77
aI77
aI77
aI77
aI77
aI58
aI77
aI77
aI77
aI77
aI77
aI77
aI68
aI42
aI77
aI77
aI77
aI77
aI77
aI77
aI77
aI77
aI77
aI77
aI77
aI77
aI77
aI77
aI68
aI77
aI77
aI77
aI77
aI77
aI77
aI77
aI77
aI77
aI77
aI77
aI77
aI77
aI78
aI77
aI77
aI77
aI77
aI77
aI77
aI77
aI77
aI77
aI77
aI77
aI77
aI77
aI77
aI77
aI77
aI46
aI77
aI77
aI77
aI77
aI77
aI77
aI77
aI77
aI77
aI76
aI77
aI77
aI77
aI77
aI77
aI77
aI77
aI77
aI77
aI68
aI69
aI77
aI77
aI77
aI77
aI77
aI77
aI77
aI77
aI46
aI69
aI77
aI77
aI77
aI77
aI77
aI77
aI77
aI46
aI77
aI77
aI77
aI77
aI77
aI77
aI77
aI77
aI77
aI77
aI77
aI77
aI77
aI77
aI77
aI77
aI77
aI77
aI77
aI77
aI77
aI77
aI77
aI77
aI77
aI77
aI77
aI77
aI77
aI42
aI77
aI77
aI77
aI77
aI77
aI77
aI77
aI77
aI77
aI76
aI77
aI77
aI69
aI77
aI77
aI77
aI77
aI77
aI77
aI77
aI77
aI77
aI77
aI77
aI77
aI76
aI77
aI77
aI62
aI77
aI77
aI67
aI77
aI77
aI77
aI77
aI77
aI77
aI77
aI77
aI77
aI77
aI77
aI77
aI77
aI77
aI69
aI77
aI77
aI77
aI77
aI68
aI77
aI77
aI77
aI77
aI77
aI77
aI77
aI77
aI77
aI77
aI77
aI77
aI69
aI77
aI77
aI77
aI77
aI77
aI77
aI77
aI77
aI77
aI77
aI77
aI77
aI77
aI77
aI77
aI77
aI77
aI77
aI67
aI76
aI77
aI77
aI77
aI77
aI77
aI77
aI77
aI77
aI77
aI77
aI77
aI77
aI77
aI77
aI77
aI77
aI77
aI77
aI77
aI77
aI76
aI66
aI77
aI77
aI67
aI77
aI76
aI77
aI77
aI77
aI77
aI77
aI77
aI77
aI77
aI77
aI77
aI77
aI77
aI77
aI77
aI77
aI77
aI77
aI69
aI77
aI77
aI58
aI77
aI77
aI77
aI77
aI77
aI77
aI77
aI77
aI77
aI77
aI77
aI77
aI77
aI77
aI77
aI77
aI77
aI77
aI77
aI67
aI77
aI77
aI77
aI77
aI77
aI77
aI77
aI77
aI77
aI77
aI77
aI77
aI77
aI77
aI68
aI77
aI77
aI77
aI77
aI77
aI77
aI77
aI77
aI77
aI77
aI68
aI77
aI77
aI77
aI77
aI76
aI68
aI77
aI77
aI77
aI77
aI77
aI77
aI77
aI58
aI97
aI77
aI77
aI77
aI77
aI77
aI77
aI77
aI77
aI77
aI77
aI77
aI77
aI77
aI77
aI77
aI77
aI77
aI76
aI77
aI77
aI77
aI67
aI77
aI46
aI77
aI77
aI77
aI77
aI77
aI77
aI77
aI77
aI77
aI77
aI77
aI77
aI77
aI77
aI77
aI68
aI77
aI77
aI77
aI69
aI77
aI68
aI77
aI77
aI77
aI77
aI77
aI77
aI77
aI77
aI77
aI77
aI69
aI77
aI77
aI77
aI46
aI77
aI77
aI67
aI77
aI77
aI76
aI77
aI77
aI77
aI77
aI77
aI77
aI77
aI77
aI69
aI77
aI77
aI77
aI77
aI77
aI77
aI77
aI77
aI77
aI77
aI77
aI77
aI77
aI77
aI77
aI77
aI77
aI77
aI77
aI77
aI77
aI77
aI77
aI77
aI77
aI77
aI77
aI42
aI77
aI77
aI77
aI77
aI77
aI77
aI77
aI77
aI77
aI77
aI77
aI77
aI77
aI77
aI77
aI77
aI69
aI77
aI77
aI77
aI77
aI77
aI77
aI77
aI77
aI77
aI77
aI77
aI77
aI77
aI76
aI77
aI77
aI77
aI77
aI77
aI68
aI77
aI46
aI77
aI77
aI77
aI66
aI77
aI77
aI77
aI76
aI77
aI77
aI77
aI42
aI77
aI77
aI69
aI77
aI77
aI77
aI77
aI77
aI77
aI77
aI77
aI77
aI77
aI77
aI77
aI77
aI77
aI77
aI77
aI77
aI77
aI77
aI77
aI77
aI77
aI77
aI77
aI77
aI67
aI77
aI77
aI77
aI77
aI46
aI77
aI77
aI77
aI77
aI77
aI77
aI77
aI77
aI77
aI77
aI68
aI77
aI77
aI69
aI77
aI77
aI77
aI77
aI77
aI77
aI77
aI77
aI77
aI77
aI77
aI77
aI77
aI77
aI77
aI77
aI77
aI77
aI77
aI77
aI77
aI77
aI77
aI74
aI77
aI77
aI77
aI77
aI77
aI77
aI77
aI77
aI77
aI69
aI77
aI77
aI77
aI77
aI77
aI77
aI77
aI77
aI77
aI46
aI76
aI77
aI77
aI77
aI77
aI77
aI77
aI77
aI77
aI77
aI77
aI77
aI77
aI77
aI77
aI77
aI77
aI62
aI77
aI77
aI77
aI77
aI77
aI77
aI77
aI77
aI77
aI77
aI77
aI68
aI77
aI77
aI77
aI77
aI77
aI77
aI77
aI77
aI77
aI77
aI77
aI77
aI77
aI77
aI77
aI77
aI77
aI77
aI77
aI77
aI77
aI77
aI77
aI77
aI77
aI67
aI77
aI77
aI77
aI77
aI77
aI77
aI77
aI77
aI77
aI77
aI77
aI77
aI77
aI77
aI77
aI77
aI77
aI77
aI67
aI77
aI77
aI46
aI77
aI77
aI77
aI77
aI77
aI77
aI77
aI77
aI62
aI77
aI77
aI77
aI77
aI77
aI77
aI77
aI77
aI77
aI77
aI77
aI77
aI77
aI77
aI77
aI77
aI77
aI77
aI77
aI77
aI77
aI77
aI74
aI77
aI77
aI77
aI77
aI77
aI77
aI77
aI77
aI69
aI77
aI77
aI77
aI77
aI77
aI77
aI77
aI77
aI77
aI77
aI77
aI77
aI77
aI77
aI62
aI77
aI77
aI77
aI77
aI77
aI77
aI77
aI77
aI77
aI77
aI77
aI77
aI77
aI77
aI77
aI77
aI42
aI77
aI69
aI77
aI77
aI46
aI77
aI77
aI77
aI77
aI69
aI77
aI77
aI74
aI46
aI77
aI77
aI77
aI77
aI77
aI77
aI77
aI77
aI77
aI77
aI77
aI77
aI77
aI77
aI77
aI77
aI77
aI77
aI77
aI77
aI77
aI77
aI77
aI77
aI77
aI77
aI77
aI77
aI77
aI77
aI77
aI69
aI77
aI77
aI77
aI77
aI77
aI77
aI77
aI77
aI77
aI77
aI77
aI77
aI77
aI77
aI77
aI77
aI77
aI77
aI77
aI68
aI77
aI77
aI77
aI77
aI77
aI77
aI77
aI46
aI77
aI77
aI77
aI77
aI67
aI77
aI77
aI77
aI77
aI77
aI77
aI77
aI77
aI77
aI77
aI77
aI77
aI77
aI77
aI77
aI77
aI77
aI77
aI77
aI77
aI77
aI77
aI77
aI77
aI69
aI68
aI77
aI77
aI77
aI77
aI77
aI77
aI77
aI77
aI77
aI77
aI77
aI77
aI77
aI76
aI77
aI77
aI62
aI77
aI77
aI77
aI77
aI77
aI67
aI77
aI77
aI76
aI77
aI77
aI77
aI42
aI77
aI77
aI77
aI77
aI77
aI77
aI77
aI77
aI77
aI77
aI77
aI77
aI77
aI77
aI77
aI77
aI77
aI68
aI77
aI77
aI77
aI77
aI77
aI77
aI77
aI77
aI77
aI77
aI77
aI77
aI77
aI77
aI77
aI77
aI77
aI77
aI77
aI77
aI77
aI77
aI77
aI68
aI77
aI77
aI77
aI77
aI42
aI77
aI77
aI77
aI77
aI77
aI77
aI77
aI77
aI77
aI77
aI77
aI77
aI77
aI77
aI77
aI77
aI77
aI67
aI77
aI77
aI77
aI77
aI77
aI77
aI77
aI77
aI77
aI77
aI77
aI77
aI77
aI77
aI77
aI77
aI77
aI77
aI77
aI77
aI77
aI77
aI77
aI77
aI77
aI77
aI77
aI77
aI77
aI77
aI77
aI77
aI77
aI77
aI77
aI77
aI77
aI77
aI77
aI77
aI77
aI77
aI77
aI76
aI77
aI67
aI77
aI77
aI77
aI77
aI77
aI77
aI77
aI77
aI77
aI77
aI77
aI77
aI77
aI77
aI77
aI77
aI77
aI77
aI77
aI62
aI68
aI77
aI77
aI77
aI77
aI77
aI77
aI69
aI77
aI69
aI77
aI74
aI77
aI77
aI77
aI77
aI77
aI77
aI77
aI77
aI77
aI77
aI77
aI77
aI77
aI77
aI77
aI77
aI77
aI77
aI77
aI77
aI77
aI77
aI77
aI77
aI77
aI77
aI77
aI77
aI77
aI77
aI77
aI77
aI77
aI77
aI77
aI77
aI77
aI77
aI77
aI77
aI74
aI66
aI77
aI77
aI77
aI77
aI77
aI77
aI77
aI77
aI68
aI77
aI77
aI77
aI74
aI77
aI77
aI77
aI77
aI77
aI77
aI77
aI77
aI77
aI77
aI77
aI77
aI77
aI77
aI77
aI77
aI77
aI77
aI77
aI77
aI77
aI77
aI77
aI77
aI77
aI77
aI77
aI77
aI77
aI77
aI77
aI76
aI77
aI77
aI77
aI77
aI77
aI77
aI77
aI77
aI77
aI77
aI77
aI77
aI77
aI77
aI77
aI76
aI77
aI77
aI77
aI77
aI77
aI77
aI67
aI77
aI77
aI77
aI77
aI77
aI69
aI77
aI68
aI77
aI77
aI77
aI77
aI46
aI77
aI77
aI77
aI68
aI69
aI77
aI77
aI77
aI77
aI77
aI68
aI77
aI77
aI77
aI77
aI76
aI77
aI77
aI46
aI77
aI68
aI77
aI77
aI77
aI77
aI77
aI77
aI77
aI77
aI77
aI77
aI77
aI77
aI77
aI77
aI69
aI77
aI77
aI77
aI58
aI77
aI77
aI77
aI77
aI67
aI77
aI77
aI74
aI77
aI77
aI77
aI77
aI77
aI77
aI67
aI77
aI77
aI77
aI68
aI77
aI69
aI77
aI77
aI77
aI77
aI77
aI77
aI77
aI77
aI77
aI77
aI77
aI77
aI77
aI77
aI77
aI77
aI77
aI77
aI77
aI77
aI77
aI77
aI77
aI77
aI77
aI76
aI77
aI77
aI77
aI77
aI77
aI77
aI77
aI77
aI77
aI77
aI77
aI76
aI77
aI77
aI68
aI77
aI46
aI77
aI77
aI77
aI77
aI77
aI77
aI77
aI77
aI77
aI77
aI77
aI77
aI77
aI77
aI77
aI77
aI77
aI77
aI77
aI77
aI77
aI77
aI77
aI77
aI77
aI77
aI77
aI77
aI75
aI77
aI69
aI77
aI77
aI77
aI77
aI77
aI77
aI77
aI77
aI77
aI77
aI77
aI77
aI77
aI69
aI77
aI69
aI77
aI77
aI77
aI77
aI77
aI77
aI77
aI77
aI77
aI77
aI77
aI77
aI77
aI77
aI76
aI77
aI75
aI77
aI77
aI77
aI77
aI77
aI77
aI77
aI77
aI77
aI77
aI77
aI77
aI77
aI75
aI77
aI77
aI74
aI77
aI77
aI77
aI77
aI77
aI77
aI77
aI77
aI77
aI77
aI77
aI77
aI77
aI77
aI77
aI77
aI77
aI77
aI77
aI77
aI77
aI77
aI77
aI77
aI77
aI77
aI77
aI77
aI77
aI58
aI77
aI77
aI67
aI77
aI77
aI77
aI77
aI77
aI77
aI77
aI77
aI77
aI77
aI77
aI77
aI77
aI77
aI77
aI77
aI77
aI77
aI77
aI77
aI74
aI77
aI77
aI77
aI77
aI77
aI77
aI77
aI77
aI77
aI58
aI77
aI77
aI77
aI77
aI68
aI77
aI77
aI77
aI77
aI77
aI77
aI77
aI77
aI77
aI77
aI77
aI77
aI77
aI77
aI77
aI77
aI77
aI77
aI77
aI77
aI77
aI68
aI77
aI77
aI77
aI77
aI77
aI77
aI77
aI77
aI77
aI77
aI77
aI77
aI77
aI77
aI77
aI77
aI77
aI77
aI69
aI77
aI77
aI77
aI77
aI77
aI77
aI77
aI77
aI77
aI77
aI77
aI77
aI77
aI77
aI77
aI77
aI77
aI77
aI77
aI77
aI77
aI77
aI68
aI77
aI77
aI77
aI77
aI77
aI77
aI77
aI77
aI77
aI77
aI77
aI77
aI77
aI77
aI77
aI77
aI77
aI77
aI77
aI77
aI77
aI77
aI77
aI77
aI77
aI77
aI77
aI77
aI77
aI77
aI77
aI77
aI77
aI77
aI77
aI76
aI77
aI77
aI77
aI77
aI77
aI77
aI77
aI66
aI77
aI66
aI77
aI77
aI77
aI99
aI77
aI77
aI77
aI77
aI77
aI77
aI67
aI77
aI77
aI77
aI77
aI77
aI77
aI77
aI77
aI77
aI77
aI77
aI77
aI77
aI58
aI77
aI77
aI77
aI77
aI77
aI77
aI77
aI77
aI77
aI67
aI77
aI77
aI77
aI77
aI77
aI69
aI77
aI77
aI77
aI77
aI69
aI77
aI77
aI77
aI77
aI77
aI77
aI77
aI77
aI77
aI77
aI77
aI77
aI77
aI77
aI77
aI77
aI77
aI77
aI77
aI77
aI77
aI77
aI77
aI77
aI77
aI77
aI77
aI77
aI77
aI77
aI77
aI46
aI77
aI77
aI77
aI77
aI77
aI68
aI77
aI77
aI77
aI74
aI77
aI77
aI77
aI77
aI74
aI77
aI58
aI76
aI76
aI77
aI77
aI77
aI77
aI77
aI77
aI77
aI77
aI77
aI77
aI77
aI77
aI77
aI77
aI77
aI66
aI77
aI77
aI60
aI76
aI76
aI76
aI76
aI76
aI76
aI74
aI76
aI76
aI76
aI76
aI76
aI76
aI76
aI76
aI76
aI76
aI69
aI68
aI76
aI76
aI76
aI76
aI76
aI76
aI69
aI76
aI76
aI76
aI76
aI76
aI76
aI76
aI76
aI69
aI76
aI76
aI68
aI76
aI76
aI76
aI67
aI76
aI77
aI76
aI76
aI76
aI76
aI76
aI76
aI76
aI67
aI76
aI76
aI76
aI76
aI76
aI76
aI76
aI76
aI76
aI76
aI76
aI74
aI76
aI76
aI76
aI76
aI76
aI74
aI76
aI76
aI76
aI76
aI76
aI76
aI76
aI76
aI69
aI76
aI76
aI76
aI76
aI67
aI76
aI76
aI76
aI76
aI76
aI69
aI76
aI76
aI76
aI76
aI76
aI76
aI76
aI76
aI76
aI76
aI76
aI76
aI76
aI76
aI76
aI76
aI76
aI77
aI76
aI76
aI68
aI76
aI74
aI58
aI76
aI76
aI68
aI76
aI77
aI76
aI76
aI76
aI86
aI76
aI76
aI76
aI76
aI76
aI46
aI76
aI76
aI76
aI76
aI76
aI76
aI76
aI76
aI76
aI76
aI76
aI76
aI76
aI69
aI76
aI75
aI76
aI76
aI76
aI77
aI76
aI76
aI76
aI76
aI76
aI78
aI76
aI76
aI76
aI76
aI76
aI76
aI97
aI76
aI76
aI76
aI76
aI76
aI76
aI76
aI76
aI76
aI76
aI76
aI76
aI76
aI76
aI76
aI76
aI76
aI76
aI76
aI76
aI76
aI76
aI76
aI76
aI76
aI66
aI68
aI76
aI76
aI76
aI76
aI76
aI77
aI76
aI76
aI76
aI76
aI76
aI76
aI76
aI76
aI76
aI69
aI76
aI76
aI76
aI76
aI76
aI76
aI76
aI76
aI66
aI67
aI76
aI76
aI76
aI76
aI77
aI77
aI77
aI77
aI77
aI67
aI77
aI77
aI77
aI77
aI77
aI77
aI77
aI77
aI77
aI77
aI77
aI69
aI76
aI76
aI77
aI77
aI77
aI77
aI77
aI77
aI77
aI77
aI77
aI77
aI59
aI76
aI76
aI76
aI76
aI76
aI77
aI69
aI77
aI77
aI77
aI77
aI77
aI77
aI77
aI77
aI77
aI77
aI77
aI77
aI77
aI77
aI77
aI77
aI77
aI77
aI77
aI77
aI61
aI76
aI76
aI76
aI76
aI76
aI76
aI76
aI76
aI76
aI77
aI76
aI76
aI76
aI77
aI76
aI74
aI76
aI76
aI76
aI77
aI77
aI76
aI76
aI76
aI76
aI76
aI77
aI77
aI77
aI77
aI77
aI68
aI77
aI67
aI77
aI77
aI77
aI77
aI77
aI59
aI76
aI76
aI76
aI46
aI76
aI76
aI77
aI77
aI77
aI77
aI77
aI77
aI77
aI77
aI77
aI77
aI77
aI77
aI77
aI77
aI77
aI58
aI77
aI76
aI76
aI76
aI76
aI76
aI77
aI77
aI77
aI77
aI77
aI77
aI42
aI77
aI77
aI77
aI77
aI76
aI76
aI77
aI77
aI77
aI69
aI77
aI77
aI77
aI77
aI77
aI77
aI77
aI58
aI77
aI77
aI42
aI77
aI77
aI77
aI77
aI77
aI77
aI77
aI77
aI77
aI77
aI77
aI77
aI77
aI77
aI77
aI46
aI77
aI77
aI77
aI77
aI77
aI77
aI77
aI77
aI67
aI77
aI77
aI77
aI77
aI67
aI77
aI77
aI77
aI76
aI77
aI77
aI77
aI76
aI77
aI77
aI77
aI77
aI77
aI77
aI67
aI77
aI77
aI77
aI77
aI77
aI77
aI77
aI77
aI77
aI77
aI77
aI77
aI77
aI77
aI77
aI77
aI77
aI77
aI77
aI68
aI67
aI77
aI77
aI77
aI77
aI77
aI68
aI77
aI69
aI77
aI77
aI77
aI77
aI74
aI77
aI76
aI77
aI77
aI77
aI77
aI77
aI77
aI77
aI77
aI76
aI77
aI76
aI77
aI77
aI77
aI77
aI67
aI77
aI77
aI77
aI77
aI77
aI67
aI77
aI77
aI77
aI77
aI77
aI77
aI77
aI77
aI46
aI77
aI77
aI77
aI77
aI77
aI68
aI77
aI77
aI77
aI77
aI77
aI77
aI77
aI77
aI77
aI77
aI77
aI77
aI77
aI77
aI77
aI77
aI77
aI77
aI77
aI77
aI77
aI77
aI77
aI77
aI77
aI77
aI77
aI77
aI77
aI42
aI77
aI77
aI77
aI77
aI77
aI77
aI77
aI77
aI77
aI77
aI77
aI77
aI77
aI77
aI77
aI77
aI77
aI77
aI60
aI77
aI77
aI77
aI77
aI77
aI77
aI77
aI76
aI77
aI77
aI68
aI77
aI77
aI77
aI77
aI77
aI77
aI77
aI77
aI77
aI69
aI77
aI77
aI77
aI77
aI77
aI77
aI67
aI77
aI77
aI46
aI77
aI77
aI77
aI77
aI76
aI76
aI76
aI76
aI76
aI76
aI76
aI76
aI76
aI76
aI76
aI76
aI76
aI76
aI76
aI73
aI76
aI76
aI76
aI76
aI76
aI76
aI76
aI76
aI76
aI76
aI76
aI77
aI76
aI76
aI76
aI76
aI77
aI76
aI76
aI77
aI76
aI76
aI76
aI77
aI76
aI45
aI76
aI76
aI76
aI77
aI76
aI76
aI76
aI76
aI77
aI76
aI76
aI77
aI76
aI76
aI73
aI77
aI76
aI76
aI77
aI76
aI76
aI58
aI77
aI77
aI77
aI77
aI76
aI77
aI76
aI76
aI76
aI76
aI77
aI76
aI76
aI77
aI76
aI76
aI77
aI76
aI76
aI77
aI76
aI54
aI77
aI76
aI77
aI76
aI76
aI77
aI76
aI76
aI77
aI76
aI76
aI77
aI77
aI77
aI76
aI77
aI76
aI77
aI76
aI77
aI76
aI77
aI76
aI77
aI76
aI77
aI76
aI77
aI76
aI77
aI76
aI77
aI76
aI77
aI76
aI77
aI77
aI76
aI58
aI77
aI76
aI77
aI76
aI69
aI77
aI76
aI77
aI77
aI77
aI59
aI59
aI77
aI69
aI77
aI77
aI77
aI77
aI77
aI77
aI77
aI77
aI77
aI77
aI77
aI70
aI77
aI68
aI77
aI77
aI54
aI77
aI77
aI77
aI77
aI59
aI77
aI77
aI77
aI77
aI77
aI77
aI77
aI77
aI77
aI77
aI77
aI77
aI77
aI77
aI76
aI77
aI77
aI69
aI77
aI77
aI77
aI45
aI77
aI77
aI77
aI77
aI77
aI77
aI77
aI77
aI77
aI77
aI77
aI77
aI77
aI77
aI77
aI77
aI77
aI45
aI77
aI77
aI77
aI77
aI77
aI77
aI77
aI77
aI77
aI77
aI54
aI59
aI77
aI77
aI77
aI77
aI77
aI77
aI77
aI77
aI77
aI77
aI77
aI77
aI77
aI77
aI77
aI54
aI59
aI77
aI77
aI43
aI77
aI77
aI77
aI77
aI77
aI77
aI77
aI77
aI77
aI69
aI77
aI77
aI77
aI77
aI77
aI77
aI77
aI77
aI77
aI77
aI77
aI76
aI77
aI77
aI59
aI77
aI77
aI77
aI77
aI77
aI77
aI77
aI77
aI77
aI77
aI77
aI77
aI77
aI77
aI77
aI77
aI77
aI77
aI76
aI77
aI77
aI77
aI69
aI77
aI77
aI77
aI76
aI77
aI77
aI77
aI77
aI77
aI77
aI77
aI77
aI77
aI77
aI77
aI77
aI77
aI77
aI77
aI77
aI77
aI77
aI77
aI77
aI77
aI77
aI76
aI77
aI59
aI77
aI77
aI77
aI77
aI77
aI77
aI77
aI77
aI77
aI73
aI77
aI77
aI77
aI77
aI77
aI77
aI77
aI77
aI77
aI45
aI76
aI77
aI54
aI60
aI77
aI77
aI77
aI77
aI77
aI77
aI77
aI77
aI77
aI60
aI77
aI77
aI77
aI77
aI77
aI77
aI77
aI77
aI77
aI77
aI77
aI60
aI77
aI77
aI77
aI77
aI77
aI77
aI77
aI77
aI60
aI77
aI77
aI49
aI77
aI77
aI77
aI77
aI77
aI77
aI77
aI77
aI77
aI77
aI77
aI77
aI77
aI77
aI77
aI77
aI77
aI77
aI77
aI77
aI77
aI77
aI77
aI77
aI77
aI77
aI77
aI77
aI77
aI77
aI77
aI77
aI77
aI73
aI77
aI77
aI77
aI77
aI77
aI77
aI77
aI77
aI77
aI77
aI77
aI77
aI77
aI43
aI77
aI77
aI77
aI77
aI77
aI77
aI77
aI77
aI77
aI77
aI77
aI59
aI77
aI77
aI77
aI77
aI77
aI77
aI77
aI77
aI77
aI77
aI77
aI77
aI77
aI49
aI77
aI77
aI77
aI77
aI77
aI77
aI77
aI77
aI59
aI77
aI77
aI77
aI68
aI77
aI77
aI77
aI77
aI77
aI77
aI77
aI77
aI77
aI77
aI77
aI77
aI77
aI77
aI77
aI77
aI45
aI77
aI77
aI77
aI77
aI77
aI77
aI77
aI73
aI77
aI77
aI77
aI77
aI77
aI77
aI77
aI77
aI77
aI77
aI77
aI77
aI77
aI73
aI77
aI77
aI77
aI77
aI77
aI77
aI77
aI59
aI77
aI77
aI77
aI77
aI77
aI77
aI77
aI77
aI77
aI77
aI77
aI77
aI77
aI77
aI77
aI77
aI77
aI77
aI77
aI77
aI77
aI77
aI77
aI77
aI77
aI77
aI77
aI77
aI77
aI77
aI77
aI77
aI77
aI77
aI77
aI77
aI77
aI77
aI76
aI77
aI77
aI77
aI77
aI77
aI77
aI77
aI77
aI77
aI60
aI77
aI43
aI77
aI77
aI77
aI77
aI77
aI77
aI77
aI77
aI77
aI77
aI77
aI77
aI77
aI77
aI77
aI77
aI77
aI77
aI77
aI77
aI77
aI77
aI77
aI76
aI78
aI77
aI77
aI77
aI77
aI77
aI77
aI77
aI77
aI77
aI77
aI77
aI77
aI77
aI77
aI77
aI77
aI59
aI45
aI77
aI77
aI77
aI77
aI77
aI77
aI77
aI77
aI77
aI77
aI77
aI77
aI77
aI77
aI77
aI77
aI77
aI77
aI77
aI77
aI60
aI77
aI77
aI45
aI77
aI77
aI77
aI69
aI77
aI77
aI77
aI77
aI77
aI77
aI77
aI69
aI77
aI77
aI45
aI77
aI77
aI77
aI77
aI77
aI49
aI77
aI77
aI77
aI77
aI77
aI77
aI77
aI77
aI77
aI77
aI77
aI77
aI76
aI77
aI77
aI77
aI77
aI77
aI77
aI76
aI77
aI74
aI77
aI77
aI77
aI77
aI77
aI77
aI77
aI45
aI77
aI77
aI77
aI77
aI77
aI77
aI77
aI77
aI77
aI68
aI77
aI77
aI77
aI77
aI77
aI77
aI77
aI77
aI77
aI77
aI77
aI77
aI77
aI77
aI77
aI77
aI69
aI77
aI77
aI76
aI77
aI77
aI77
aI77
aI77
aI77
aI77
aI77
aI77
aI77
aI77
aI77
aI77
aI77
aI77
aI77
aI77
aI77
aI59
aI77
aI43
aI77
aI77
aI77
aI42
aI77
aI60
aI77
aI77
aI77
aI77
aI68
aI77
aI99
aI77
aI77
aI77
aI77
aI77
aI77
aI73
aI77
aI77
aI77
aI77
aI68
aI77
aI77
aI77
aI77
aI77
aI77
aI77
aI77
aI77
aI77
aI59
aI77
aI77
aI77
aI77
aI77
aI77
aI77
aI77
aI77
aI77
aI77
aI77
aI77
aI77
aI77
aI77
aI77
aI77
aI77
aI77
aI77
aI77
aI77
aI77
aI77
aI77
aI77
aI77
aI77
aI77
aI77
aI77
aI77
aI77
aI77
aI77
aI77
aI77
aI77
aI59
aI77
aI77
aI77
aI77
aI77
aI77
aI77
aI95
aI77
aI77
aI77
aI77
aI77
aI77
aI76
aI77
aI77
aI77
aI77
aI77
aI76
aI77
aI77
aI77
aI77
aI77
aI77
aI77
aI77
aI77
aI77
aI77
aI77
aI77
aI77
aI77
aI77
aI77
aI77
aI77
aI77
aI77
aI77
aI45
aI77
aI77
aI77
aI77
aI77
aI77
aI42
aI77
aI77
aI77
aI77
aI77
aI76
aI77
aI77
aI77
aI77
aI77
aI77
aI77
aI77
aI77
aI77
aI77
aI77
aI77
aI77
aI77
aI77
aI77
aI77
aI76
aI77
aI77
aI77
aI77
aI77
aI49
aI77
aI77
aI77
aI77
aI77
aI77
aI77
aI77
aI77
aI77
aI77
aI77
aI77
aI45
aI77
aI77
aI76
aI77
aI77
aI77
aI77
aI77
aI59
aI77
aI77
aI69
aI60
aI77
aI77
aI77
aI77
aI77
aI77
aI77
aI77
aI77
aI77
aI77
aI95
aI77
aI77
aI77
aI77
aI77
aI77
aI77
aI77
aI77
aI77
aI77
aI77
aI77
aI58
aI77
aI77
aI77
aI77
aI77
aI77
aI77
aI77
aI77
aI77
aI77
aI77
aI77
aI77
aI77
aI77
aI77
aI77
aI76
aI77
aI77
aI77
aI77
aI77
aI77
aI49
aI77
aI77
aI77
aI54
aI77
aI77
aI77
aI77
aI77
aI76
aI77
aI77
aI77
aI77
aI77
aI77
aI77
aI77
aI77
aI77
aI77
aI77
aI77
aI77
aI77
aI77
aI77
aI77
aI77
aI77
aI68
aI77
aI77
aI77
aI77
aI77
aI58
aI77
aI77
aI77
aI77
aI77
aI77
aI77
aI77
aI77
aI77
aI77
aI77
aI77
aI77
aI77
aI77
aI77
aI77
aI77
aI77
aI77
aI77
aI70
aI77
aI77
aI77
aI77
aI77
aI60
aI77
aI77
aI77
aI77
aI77
aI77
aI77
aI77
aI77
aI77
aI77
aI77
aI77
aI77
aI77
aI69
aI77
aI77
aI77
aI77
aI77
aI77
aI77
aI77
aI77
aI77
aI77
aI77
aI77
aI59
aI76
aI77
aI77
aI77
aI77
aI77
aI77
aI77
aI77
aI77
aI76
aI77
aI77
aI77
aI77
aI77
aI77
aI77
aI77
aI77
aI59
aI69
aI76
aI77
aI77
aI77
aI77
aI77
aI77
aI77
aI77
aI77
aI77
aI77
aI77
aI77
aI77
aI77
aI77
aI70
aI77
aI45
aI95
aI60
aI76
aI92
aI60
aI95
aI85
aI92
aI85
aI92
aI85
aI92
aI85
aI92
aI85
aI92
aI85
aI92
aI85
aI85
aI92
aI85
aI92
aI77
aI85
aI67
aI85
aI75
aI85
aI92
aI76
aI85
aI85
aI92
aI62
aI85
aI85
aI92
aI85
aI85
aI92
aI45
aI84
aI92
aI85
aI85
aI92
aI85
aI85
aI92
aI45
aI85
aI85
aI92
aI85
aI84
aI85
aI92
aI85
aI85
aI92
aI85
aI85
aI85
aI84
aI92
aI85
aI85
aI95
aI85
aI92
aI85
aI85
aI85
aI85
aI92
aI85
aI84
aI85
aI85
aI92
aI85
aI85
aI85
aI85
aI95
aI85
aI92
aI85
aI85
aI85
aI42
aI45
aI84
aI85
aI85
aI76
aI92
aI85
aI85
aI85
aI85
aI85
aI92
aI85
aI85
aI85
aI95
aI85
aI84
aI85
aI85
aI85
aI92
aI85
aI93
aI85
aI85
aI85
aI85
aI85
aI95
aI85
aI85
aI54
aI92
aI93
aI85
aI85
aI84
aI85
aI85
aI85
aI85
aI92
aI85
aI85
aI85
aI85
aI85
aI85
aI95
aI85
aI85
aI72
aI92
aI85
aI86
aI85
aI85
aI84
aI85
aI85
aI85
aI85
aI73
aI95
aI85
aI85
aI85
aI85
aI90
aI85
aI85
aI85
aI85
aI84
aI85
aI85
aI85
aI85
aI85
aI95
aI85
aI85
aI85
aI85
aI85
aI84
aI95
aI84
aI85
aI85
aI85
aI92
aI74
aI85
aI85
aI85
aI85
aI85
aI85
aI58
aI72
aI44
aI46
aI39
aI39
aI39
aI61
aI39
aI51
aI39
aI39
aI39
aI39
aI39
aI39
aI66
aI39
aI39
aI39
aI39
aI39
aI39
aI39
aI39
aI56
aI45
aI39
aI39
aI49
aI39
aI39
aI39
aI51
aI39
aI56
aI58
aI39
aI39
aI53
aI56
aI39
aI41
aI48
aI60
aI39
aI63
aI39
aI39
aI59
aI39
aI39
aI39
aI39
aI39
aI39
aI39
aI39
aI39
aI39
aI39
aI39
aI47
aI39
aI51
aI50
aI39
aI46
aI39
aI39
aI51
aI39
aI39
aI39
aI39
aI53
aI39
aI39
aI39
aI51
aI59
aI39
aI60
aI39
aI39
aI39
aI51
aI39
aI39
aI39
aI39
aI39
aI60
aI39
aI49
aI39
aI39
aI61
aI68
aI69
aI50
aI58
aI65
aI49
aI65
aI68
aI56
aI52
aI54
aI54
aI54
aI54
aI54
aI54
aI51
aI54
aI54
aI43
aI52
aI52
aI43
aI52
aI39
aI51
aI53
aI52
aI52
aI52
aI52
aI52
aI44
aI51
aI51
aI51
aI51
aI48
aI48
aI51
aI50
aI50
aI50
aI50
aI50
aI50
aI50
aI50
aI50
aI50
aI50
aI40
aI50
aI50
aI50
aI50
aI47
aI50
aI50
aI47
aI50
aI50
aI50
aI50
aI50
aI50
aI50
aI50
aI50
aI50
aI50
aI49
aI50
aI50
aI50
aI50
aI48
aI49
aI50
aI50
aI46
aI50
aI50
aI50
aI48
aI50
aI50
aI46
aI50
aI50
aI50
aI50
aI50
aI49
aI50
aI41
aI45
aI50
aI50
aI49
aI50
aI49
aI50
aI50
aI44
aI69
aI50
aI50
aI50
aI49
aI50
aI50
aI50
aI50
aI50
aI50
aI50
aI50
aI50
aI39
aI52
aI42
aI52
aI51
aI50
aI52
aI52
aI49
aI51
aI52
aI52
aI52
aI52
aI52
aI49
aI52
aI47
aI41
aI52
aI52
aI52
aI52
aI52
aI52
aI52
aI57
aI52
aI51
aI52
aI49
aI52
aI52
aI52
aI52
aI52
aI52
aI58
aI52
aI40
aI52
aI52
aI52
aI52
aI52
aI52
aI52
aI50
aI52
aI50
aI60
aI52
aI51
aI52
aI52
aI52
aI52
aI52
aI52
aI52
aI52
aI47
aI52
aI57
aI52
aI51
aI52
aI45
aI52
aI44
aI52
aI50
aI52
aI52
aI52
aI39
aI52
aI51
aI56
aI52
aI52
aI52
aI52
aI52
aI51
aI52
aI44
aI52
aI52
aI52
aI52
aI52
aI52
aI52
aI52
aI52
aI52
aI52
aI52
aI52
aI52
aI52
aI52
aI52
aI52
aI52
aI52
aI52
aI60
aI52
aI51
aI52
aI52
aI52
aI52
aI50
aI52
aI52
aI52
aI52
aI52
aI39
aI52
aI52
aI52
aI52
aI52
aI52
aI38
aI52
aI52
aI52
aI53
aI51
aI51
aI53
aI52
aI51
aI52
aI52
aI55
aI52
aI52
aI52
aI52
aI51
aI52
aI52
aI56
aI52
aI52
aI61
aI52
aI44
aI52
aI52
aI52
aI52
aI52
aI52
aI52
aI39
aI52
aI52
aI52
aI52
aI52
aI52
aI52
aI51
aI50
aI52
aI49
aI52
aI52
aI52
aI52
aI52
aI52
aI63
aI52
aI52
aI52
aI52
aI46
aI52
aI52
aI52
aI52
aI51
aI52
aI49
aI52
aI52
aI39
aI52
aI49
aI52
aI52
aI52
aI52
aI52
aI52
aI52
aI52
aI52
aI53
aI52
aI52
aI52
aI46
aI50
aI52
aI52
aI52
aI50
aI52
aI52
aI52
aI52
aI52
aI52
aI52
aI52
aI53
aI52
aI52
aI53
aI69
aI52
aI52
aI52
aI52
aI42
aI52
aI44
aI52
aI52
aI49
aI52
aI52
aI53
aI45
aI52
aI52
aI52
aI53
aI52
aI52
aI52
aI52
aI52
aI55
aI50
aI52
aI72
aI52
aI52
aI52
aI52
aI52
aI72
aI52
aI51
aI41
aI52
aI45
aI52
aI52
aI52
aI42
aI52
aI52
aI52
aI52
aI51
aI52
aI52
aI50
aI52
aI52
aI52
aI51
aI52
aI52
aI52
aI52
aI52
aI52
aI47
aI52
aI52
aI52
aI72
aI52
aI52
aI52
aI52
aI52
aI52
aI52
aI52
aI50
aI51
aI52
aI52
aI52
aI41
aI52
aI52
aI52
aI52
aI52
aI52
aI52
aI52
aI52
aI52
aI52
aI52
aI52
aI52
aI52
aI50
aI52
aI52
aI52
aI52
aI52
aI53
aI52
aI52
aI52
aI52
aI52
aI52
aI52
aI51
aI43
aI52
aI52
aI52
aI51
aI52
aI40
aI52
aI52
aI52
aI52
aI52
aI52
aI54
aI52
aI52
aI52
aI52
aI52
aI52
aI52
aI52
aI40
aI52
aI52
aI52
aI52
aI52
aI53
aI52
aI52
aI52
aI52
aI52
aI51
aI52
aI52
aI53
aI52
aI52
aI52
aI52
aI52
aI52
aI52
aI52
aI52
aI52
aI52
aI59
aI52
aI52
aI52
aI42
aI52
aI52
aI53
aI52
aI52
aI49
aI39
aI51
aI52
aI52
aI52
aI49
aI52
aI52
aI52
aI52
aI52
aI52
aI52
aI52
aI59
aI52
aI52
aI53
aI52
aI42
aI52
aI52
aI39
aI52
aI59
aI39
aI43
aI52
aI52
aI52
aI53
aI52
aI42
aI52
aI52
aI52
aI52
aI52
aI52
aI53
aI52
aI52
aI52
aI52
aI52
aI44
aI52
aI51
aI50
aI52
aI52
aI51
aI59
aI52
aI52
aI52
aI52
aI43
aI52
aI52
aI50
aI52
aI53
aI52
aI43
aI52
aI53
aI52
aI53
aI52
aI52
aI72
aI52
aI52
aI53
aI52
aI50
aI52
aI40
aI49
aI44
aI71
aI43
aI52
aI52
aI52
aI53
aI52
aI52
aI52
aI60
aI52
aI53
aI52
aI52
aI51
aI52
aI52
aI53
aI52
aI52
aI52
aI52
aI52
aI60
aI52
aI52
aI52
aI52
aI52
aI52
aI54
aI52
aI52
aI52
aI52
aI52
aI52
aI53
aI72
aI52
aI52
aI51
aI52
aI51
aI52
aI52
aI52
aI52
aI42
aI54
aI53
aI52
aI52
aI52
aI52
aI52
aI52
aI52
aI52
aI53
aI52
aI51
aI52
aI52
aI52
aI52
aI66
aI50
aI52
aI52
aI52
aI52
aI52
aI52
aI52
aI53
aI62
aI51
aI52
aI52
aI52
aI52
aI51
aI50
aI52
aI52
aI52
aI52
aI52
aI52
aI52
aI52
aI52
aI52
aI59
aI52
aI53
aI52
aI52
aI52
aI52
aI52
aI52
aI52
aI52
aI52
aI52
aI49
aI52
aI52
aI52
aI53
aI59
aI52
aI52
aI52
aI50
aI53
aI52
aI52
aI52
aI50
aI52
aI52
aI53
aI52
aI52
aI52
aI51
aI51
aI52
aI52
aI55
aI52
aI52
aI52
aI52
aI52
aI52
aI53
aI52
aI52
aI52
aI44
aI52
aI52
aI52
aI52
aI51
aI52
aI52
aI52
aI52
aI60
aI52
aI52
aI52
aI50
aI51
aI53
aI52
aI52
aI52
aI52
aI53
aI53
aI108
aI107
aI63
aI48
aI107
aI246
aI390
aI390
aI194
aI52
aI51
aI50
aI53
aI126
aI66
aI66
aI66
aI62
aI66
aI64
aI126
aI109
aI60
aI66
aI126
aI60
aI66
aI124
aI126
aI49
aI144
aI126
aI126
aI68
aI126
aI54
aI126
aI126
aI49
aI109
aI109
aI88
aI246
aI107
aI246
aI107
aI107
aI107
aI192
aI107
aI107
aI107
aI88
aI107
aI107
aI52
aI49
aI194
aI105
aI107
aI51
aI62
aI107
aI50
aI106
aI107
aI107
aI107
aI107
aI53
aI107
aI107
aI107
aI66
aI107
aI61
aI87
aI107
aI192
aI107
aI107
aI107
aI50
aI106
aI107
aI107
aI50
aI88
aI107
aI331
aI107
aI66
aI107
aI107
aI107
aI107
aI125
aI107
aI106
aI107
aI51
aI107
aI107
aI331
aI49
aI65
aI70
aI107
aI107
aI107
aI70
aI106
aI105
aI51
aI165
aI70
aI70
aI107
aI87
aI50
aI107
aI49
aI49
aI107
aI107
aI106
aI107
aI107
aI60
aI107
aI107
aI120
aI156
aI107
aI107
aI106
aI120
aI107
aI125
aI107
aI107
aI52
aI107
aI64
aI107
aI107
aI107
aI107
aI107
aI105
aI107
aI107
aI62
aI107
aI154
aI107
aI107
aI107
aI107
aI107
aI50
aI107
aI107
aI107
aI107
aI66
aI107
aI107
aI125
aI64
aI107
aI107
aI107
aI49
aI107
aI107
aI49
aI126
aI107
aI49
aI60
aI107
aI49
aI107
aI107
aI107
aI64
aI107
aI49
aI107
aI107
aI49
aI49
aI70
aI141
aI178
aI107
aI272
aI61
aI107
aI107
aI105
aI107
aI107
aI126
aI107
aI107
aI107
aI107
aI107
aI107
aI107
aI107
aI107
aI107
aI107
aI107
aI192
aI101
aI107
aI106
aI107
aI107
aI107
aI107
aI107
aI107
aI107
aI107
aI107
aI107
aI107
aI181
aI107
aI62
aI107
aI80
aI189
aI107
aI107
aI107
aI107
aI107
aI107
aI107
aI57
aI107
aI60
aI107
aI146
aI107
aI125
aI107
aI61
aI110
aI107
aI107
aI107
aI107
aI107
aI107
aI107
aI107
aI107
aI107
aI107
aI107
aI60
aI125
aI107
aI107
aI107
aI107
aI107
aI104
aI107
aI107
aI55
aI70
aI60
aI107
aI52
aI60
aI107
aI272
aI107
aI107
aI107
aI144
aI107
aI107
aI103
aI109
aI55
aI107
aI106
aI107
aI66
aI107
aI62
aI107
aI109
aI107
aI131
aI107
aI103
aI146
aI107
aI107
aI107
aI49
aI107
aI201
aI49
aI106
aI50
aI48
aI107
aI50
aI107
aI190
aI107
aI107
aI88
aI107
aI139
aI107
aI62
aI64
aI49
aI107
aI107
aI107
aI107
aI107
aI107
aI62
aI63
aI103
aI107
aI107
aI107
aI60
aI77
aI107
aI87
aI107
aI107
aI107
aI126
aI136
aI107
aI107
aI107
aI107
aI107
aI107
aI107
aI108
aI107
aI107
aI107
aI107
aI107
aI64
aI43
aI107
aI154
aI107
aI107
aI107
aI42
aI107
aI41
aI107
aI139
aI107
aI107
aI107
aI107
aI107
aI107
aI61
aI107
aI107
aI107
aI52
aI107
aI107
aI60
aI107
aI107
aI107
aI107
aI107
aI230
aI107
aI107
aI42
aI107
aI120
aI107
aI256
aI107
aI103
aI107
aI107
aI87
aI53
aI125
aI71
aI60
aI107
aI155
aI107
aI122
aI107
aI107
aI107
aI125
aI122
aI125
aI143
aI203
aI143
aI53
aI71
aI143
aI197
aI794
aI674
aI125
aI143
aI161
aI592
aI901
aI310
aI53
aI901
aI52
aI901
aI901
aI64
aI52
aI901
aI901
aI49
aI901
aI901
aI213
aI901
aI632
aI124
aI107
aI117
aI901
aI901
aI107
aI60
aI901
aI755
aI135
aI901
aI874
aI573
aI901
aI686
aI675
aI637
aI662
aI70
aI901
aI299
aI145
aI197
aI901
aI901
aI266
aI741
aI50
aI161
aI279
aI901
aI901
aI901
aI901
aI901
aI343
aI609
aI901
aI52
aI901
aI901
aI421
aI52
aI901
aI901
aI49
aI64
aI901
aI901
aI57
aI901
aI126
aI340
aI63
aI901
aI901
aI901
aI62
aI901
aI87
aI901
aI372
aI757
aI62
aI901
aI901
aI747
aI63
aI161
aI901
aI63
aI60
aI901
aI341
aI901
aI901
aI410
aI901
aI711
aI901
aI663
aI433
aI437
aI901
aI772
aI901
aI342
aI432
aI901
aI901
aI901
aI901
aI418
aI901
aI63
aI77
aI901
aI901
aI901
aI57
aI64
aI901
aI161
aI833
aI901
aI554
aI901
aI901
aI901
aI901
aI588
aI901
aI901
aI901
aI901
aI55
aI901
aI901
aI880
aI901
aI901
aI901
aI57
aI901
aI901
aI901
aI901
aI58
aI53
aI749
aI106
aI901
aI901
aI608
aI55
aI675
aI901
aI901
aI60
aI901
aI901
aI901
aI901
aI62
aI244
aI901
aI901
aI901
aI63
aI901
aI58
aI901
aI52
aI901
aI580
aI901
aI901
aI901
aI901
aI676
aI901
aI901
aI901
aI49
aI901
aI811
aI901
aI901
aI901
aI901
aI551
aI50
aI467
aI901
aI58
aI70
aI374
aI901
aI901
aI71
aI901
aI901
aI901
aI901
aI50
aI52
aI901
aI901
aI58
aI161
aI51
aI901
aI837
aI901
aI746
aI437
aI62
aI382
aI901
aI604
aI70
aI516
aI901
aI70
aI901
aI901
aI52
aI901
aI901
aI901
aI817
aI901
aI336
aI639
aI901
aI141
aI694
aI519
aI901
aI639
aI263
aI901
aI555
aI901
aI49
aI901
aI901
aI901
aI716
aI60
aI901
aI106
aI901
aI901
aI57
aI76
aI158
aI49
aI901
aI141
aI141
aI141
aI70
aI901
aI901
aI901
aI142
aI642
aI178
aI901
aI194
aI54
aI232
aI141
aI141
aI141
aI192
aI106
aI141
aI317
aI316
aI317
aI149
aI159
aI317
aI53
aI193
aI317
aI419
aI63
aI317
aI142
aI901
aI87
aI563
aI53
aI708
aI142
aI301
aI901
aI52
aI142
aI179
aI70
aI901
aI883
aI62
aI64
aI619
aI636
aI901
aI901
aI411
aI178
aI901
aI338
aI901
aI41
aI444
aI901
aI106
aI64
aI901
aI87
aI52
aI179
aI551
aI901
aI901
aI43
aI310
aI142
aI492
aI901
aI901
aI901
aI74
aI901
aI901
aI370
aI196
aI141
aI382
aI55
aI51
aI70
aI506
aI901
aI230
aI873
aI315
aI901
aI901
aI901
aI901
aI901
aI901
aI57
aI901
aI901
aI54
aI901
aI761
aI54
aI901
aI901
aI475
aI124
aI664
aI901
aI49
aI901
aI901
aI444
aI57
aI87
aI265
aI50
aI48
aI901
aI901
aI688
aI901
aI51
aI802
aI426
aI901
aI901
aI64
aI901
aI901
aI901
aI49
aI901
aI265
aI91
aI901
aI901
aI901
aI608
aI901
aI49
aI901
aI901
aI901
aI88
aI901
aI901
aI586
aI901
aI901
aI666
aI493
aI901
aI665
aI71
aI901
aI351
aI901
aI52
aI49
aI43
aI901
aI64
aI901
aI86
aI459
aI901
aI438
aI76
aI50
aI317
aI428
aI142
aI796
aI91
aI616
aI426
aI302
aI265
aI53
aI901
aI688
aI371
aI302
aI901
aI901
aI120
aI369
aI357
aI901
aI901
aI52
aI901
aI562
aI901
aI901
aI901
aI901
aI901
aI348
aI901
aI87
aI901
aI901
aI49
aI70
aI778
aI825
aI901
aI515
aI139
aI53
aI709
aI901
aI604
aI901
aI901
aI755
aI407
aI176
aI231
aI901
aI60
aI901
aI233
aI901
aI142
aI54
aI901
aI901
aI901
aI901
aI658
aI266
aI901
aI464
aI901
aI468
aI765
aI412
aI901
aI122
aI349
aI142
aI142
aI901
aI901
aI429
aI901
aI178
aI901
aI480
aI51
aI124
aI901
aI356
aI901
aI901
aI625
aI585
aI880
aI52
aI517
aI901
aI51
aI62
aI901
aI142
aI52
aI142
aI225
aI231
aI141
aI141
aI54
aI319
aI901
aI42
aI210
aI437
aI70
aI141
aI158
aI141
aI334
aI141
aI560
aI142
aI74
aI901
aI625
aI901
aI901
aI780
aI87
aI76
aI91
aI334
aI142
aI142
aI901
aI901
aI159
aI60
aI901
aI53
aI372
aI901
aI58
aI50
aI196
aI901
aI901
aI901
aI679
aI478
aI863
aI901
aI901
aI901
aI142
aI53
aI396
aI901
aI132
aI142
aI43
aI897
aI106
aI142
aI142
aI498
aI901
aI49
aI813
aI105
aI693
aI43
aI901
aI76
aI141
aI142
aI225
aI178
aI131
aI142
aI137
aI142
aI45
aI107
aI142
aI142
aI70
aI142
aI142
aI45
aI43
aI320
aI212
aI901
aI58
aI901
aI853
aI771
aI357
aI901
aI179
aI54
aI901
aI901
aI178
aI615
aI87
aI901
aI901
aI901
aI545
aI901
aI58
aI901
aI462
aI901
aI178
aI546
aI54
aI49
aI76
aI635
aI134
aI142
aI142
aI179
aI901
aI45
aI410
aI901
aI901
aI266
aI901
aI533
aI901
aI901
aI105
aI64
aI901
aI699
aI446
aI520
aI60
aI424
aI512
aI66
aI483
aI46
aI901
aI901
aI784
aI406
aI901
aI901
aI901
aI249
aI319
aI901
aI901
aI49
aI668
aI473
aI901
aI604
aI801
aI901
aI262
aI901
aI901
aI901
aI139
aI266
aI901
aI652
aI901
aI49
aI262
aI142
aI142
aI901
aI877
aI901
aI141
aI46
aI141
aI141
aI181
aI124
aI140
aI39
aI162
aI142
aI141
aI177
aI132
aI141
aI49
aI244
aI901
aI901
aI76
aI70
aI141
aI294
aI464
aI490
aI901
aI59
aI901
aI901
aI901
aI46
aI559
aI901
aI901
aI901
aI901
aI54
aI70
aI901
aI901
aI528
aI249
aI177
aI141
aI132
aI142
aI142
aI142
aI901
aI901
aI901
aI901
aI733
aI141
aI141
aI141
aI299
aI141
aI177
aI300
aI142
aI142
aI901
aI141
aI300
aI142
aI751
aI142
aI107
aI300
aI209
aI118
aI63
aI141
aI141
aI141
aI141
aI141
aI59
aI177
aI50
aI177
aI232
aI87
aI50
aI605
aI141
aI42
aI142
aI142
aI583
aI142
aI135
aI43
aI91
aI75
aI105
aI106
aI141
aI160
aI141
aI49
aI140
aI177
aI58
aI142
aI300
aI300
aI527
aI177
aI56
aI266
aI177
aI217
aI57
aI155
aI59
aI141
aI153
aI46
aI140
aI140
aI140
aI140
aI177
aI140
aI177
aI140
aI56
aI177
aI40
aI177
aI105
aI105
aI140
aI140
aI40
aI140
aI177
aI124
aI141
aI105
aI76
aI105
aI105
aI105
aI105
aI140
aI60
aI173
aI142
aI106
aI106
aI142
aI266
aI89
aI142
aI46
aI142
aI124
aI106
aI141
aI142
aI137
aI64
aI61
aI124
aI106
aI141
aI142
aI142
aI142
aI46
aI142
aI66
aI141
aI164
aI137
aI123
aI141
aI105
aI141
aI141
aI106
aI141
aI106
aI106
aI106
aI44
aI105
aI60
aI59
aI70
aI142
aI142
aI267
aI45
aI177
aI155
aI142
aI140
aI141
aI188
aI176
aI70
aI141
aI141
aI141
aI58
aI141
aI141
aI40
aI139
aI141
aI141
aI40
aI141
aI141
aI141
aI209
aI168
aI142
aI141
aI177
aI177
aI39
aI177
aI177
aI177
aI177
aI54
aI141
aI177
aI177
aI59
aI305
aI177
aI139
aI177
aI49
aI207
aI141
aI123
aI155
aI207
aI49
aI52
aI108
aI69
aI137
aI141
aI106
aI59
aI116
aI87
aI106
aI106
aI167
aI105
aI70
aI106
aI106
aI50
aI66
aI106
aI142
aI178
aI106
aI122
aI106
aI64
aI106
aI106
aI106
aI133
aI125
aI153
aI106
aI50
aI108
aI106
aI106
aI106
aI106
aI106
aI53
aI106
aI106
aI106
aI178
aI150
aI58
aI125
aI106
aI106
aI43
aI115
aI106
aI178
aI49
aI106
aI106
aI106
aI106
aI106
aI106
aI123
aI106
aI98
aI106
aI52
aI228
aI106
aI106
aI106
aI106
aI123
aI106
aI106
aI106
aI106
aI106
aI106
aI106
aI106
aI155
aI106
aI166
aI106
aI106
aI106
aI106
aI106
aI106
aI64
aI106
aI228
aI106
aI106
aI106
aI106
aI106
aI71
aI106
aI114
aI106
aI106
aI106
aI70
aI106
aI155
aI169
aI106
aI106
aI106
aI62
aI71
aI106
aI106
aI106
aI106
aI106
aI136
aI106
aI155
aI106
aI106
aI106
aI106
aI106
aI88
aI106
aI106
aI106
aI87
aI188
aI106
aI106
aI106
aI106
aI71
aI106
aI106
aI106
aI106
aI49
aI129
aI106
aI68
aI106
aI106
aI45
aI44
aI155
aI106
aI106
aI45
aI106
aI98
aI153
aI68
aI49
aI106
aI153
aI106
aI106
aI106
aI106
aI118
aI106
aI155
aI106
aI62
aI58
aI177
aI177
aI177
aI70
aI177
aI88
aI58
aI177
aI154
aI54
aI49
aI142
aI64
aI177
aI264
aI177
aI56
aI232
aI177
aI60
aI106
aI73
aI177
aI60
aI155
aI141
aI141
aI123
aI60
aI141
aI142
aI43
aI142
aI168
aI106
aI141
aI44
aI142
aI141
aI53
aI126
aI177
aI177
aI177
aI60
aI177
aI177
aI177
aI133
aI142
aI73
aI177
aI50
aI264
aI177
aI183
aI106
aI106
aI106
aI60
aI168
aI42
aI159
aI177
aI177
aI177
aI117
aI142
aI106
aI106
aI106
aI123
aI152
aI106
aI155
aI168
aI177
aI177
aI177
aI177
aI177
aI122
aI177
aI66
aI177
aI177
aI183
aI106
aI53
aI89
aI142
aI177
aI87
aI177
aI60
aI177
aI106
aI106
aI106
aI49
aI106
aI49
aI106
aI106
aI106
aI106
aI66
aI106
aI106
aI152
aI140
aI49
aI62
aI106
aI106
aI106
aI191
aI140
aI106
aI96
aI106
aI106
aI106
aI141
aI106
aI106
aI112
aI52
aI105
aI54
aI106
aI229
aI106
aI105
aI106
aI106
aI106
aI108
aI106
aI42
aI106
aI106
aI52
aI106
aI106
aI106
aI71
aI45
aI136
aI106
aI106
aI106
aI70
aI106
aI106
aI96
aI63
aI165
aI106
aI155
aI106
aI106
aI106
aI58
aI155
aI106
aI106
aI106
aI106
aI106
aI104
aI106
aI106
aI106
aI106
aI106
aI106
aI58
aI106
aI191
aI244
aI50
aI106
aI106
aI135
aI169
aI191
aI191
aI191
aI176
aI106
aI53
aI112
aI106
aI186
aI106
aI106
aI106
aI106
aI106
aI106
aI106
aI106
aI106
aI136
aI106
aI108
aI106
aI106
aI96
aI106
aI136
aI106
aI50
aI106
aI106
aI106
aI106
aI106
aI106
aI106
aI106
aI106
aI159
aI106
aI106
aI106
aI106
aI46
aI106
aI106
aI106
aI136
aI87
aI44
aI106
aI60
aI106
aI106
aI106
aI106
aI112
aI45
aI106
aI106
aI173
aI106
aI63
aI42
aI106
aI57
aI59
aI53
aI50
aI106
aI106
aI88
aI106
aI50
aI106
aI49
aI106
aI66
aI106
aI106
aI106
aI106
aI106
aI106
aI106
aI106
aI58
aI106
aI106
aI63
aI106
aI106
aI116
aI106
aI106
aI106
aI70
aI155
aI60
aI49
aI106
aI106
aI58
aI106
aI117
aI106
aI106
aI66
aI63
aI64
aI106
aI106
aI106
aI112
aI106
aI106
aI106
aI191
aI58
aI136
aI270
aI155
aI106
aI106
aI65
aI244
aI43
aI106
aI106
aI106
aI49
aI106
aI96
aI106
aI106
aI106
aI106
aI106
aI106
aI106
aI106
aI106
aI169
aI106
aI106
aI106
aI106
aI106
aI166
aI106
aI106
aI106
aI136
aI106
aI116
aI106
aI122
aI105
aI106
aI106
aI106
aI42
aI106
aI106
aI106
aI155
aI176
aI106
aI106
aI106
aI106
aI228
aI112
aI106
aI106
aI106
aI63
aI106
aI106
aI106
aI106
aI106
aI106
aI43
aI271
aI45
aI106
aI106
aI51
aI196
aI40
aI173
aI106
aI106
aI106
aI106
aI106
aI106
aI106
aI271
aI106
aI62
aI106
aI106
aI106
aI106
aI244
aI106
aI106
aI256
aI106
aI221
aI106
aI106
aI135
aI106
aI106
aI54
aI106
aI106
aI123
aI105
aI106
aI106
aI106
aI49
aI106
aI106
aI160
aI106
aI106
aI106
aI106
aI106
aI70
aI106
aI106
aI135
aI49
aI106
aI106
aI190
aI106
aI106
aI106
aI106
aI106
aI106
aI221
aI106
aI50
aI43
aI106
aI105
aI160
aI106
aI106
aI106
aI106
aI106
aI106
aI106
aI106
aI106
aI106
aI106
aI136
aI106
aI106
aI59
aI106
aI256
aI154
aI106
aI70
aI123
aI70
aI171
aI106
aI106
aI106
aI73
aI106
aI88
aI106
aI106
aI154
aI106
aI106
aI106
aI106
aI106
aI106
aI106
aI123
aI155
aI178
aI271
aI106
aI166
aI191
aI106
aI106
aI205
aI106
aI52
aI232
aI106
aI106
aI60
aI106
aI73
aI106
aI106
aI106
aI106
aI106
aI106
aI151
aI106
aI105
aI106
aI271
aI123
aI58
aI154
aI106
aI106
aI106
aI121
aI106
aI106
aI106
aI106
aI106
aI50
aI64
aI106
aI72
aI106
aI106
aI50
aI106
aI106
aI106
aI159
aI106
aI49
aI106
aI106
aI136
aI105
aI58
aI106
aI106
aI106
aI106
aI106
aI106
aI106
aI106
aI45
aI106
aI49
aI106
aI106
aI221
aI106
aI65
aI106
aI106
aI106
aI106
aI60
aI106
aI140
aI106
aI106
aI106
aI62
aI106
aI106
aI106
aI106
aI51
aI50
aI108
aI106
aI106
aI106
aI106
aI106
aI106
aI42
aI106
aI106
aI106
aI106
aI106
aI106
aI106
aI106
aI52
aI156
aI106
aI108
aI106
aI106
aI70
aI106
aI106
aI106
aI106
aI106
aI106
aI106
aI106
aI56
aI106
aI49
aI50
aI106
aI106
aI123
aI106
aI70
aI51
aI106
aI106
aI106
aI106
aI49
aI153
aI106
aI156
aI106
aI106
aI106
aI106
aI106
aI50
aI106
aI63
aI106
aI106
aI106
aI106
aI61
aI161
aI106
aI58
aI106
aI73
aI155
aI106
aI106
aI106
aI106
aI149
aI106
aI106
aI106
aI106
aI106
aI106
aI153
aI106
aI66
aI106
aI60
aI106
aI106
aI106
aI106
aI58
aI107
aI106
aI124
aI106
aI106
aI106
aI106
aI106
aI106
aI64
aI153
aI132
aI219
aI135
aI50
aI122
aI135
aI135
aI135
aI135
aI135
aI135
aI136
aI135
aI116
aI148
aI135
aI136
aI135
aI136
aI60
aI135
aI62
aI136
aI136
aI49
aI110
aI193
aI229
aI136
aI136
aI41
aI83
aI135
aI136
aI136
aI152
aI136
aI136
aI136
aI136
aI152
aI136
aI152
aI155
aI152
aI152
aI152
aI136
aI72
aI73
aI219
aI101
aI173
aI69
aI167
aI152
aI152
aI152
aI85
aI238
aI219
aI152
aI152
aI72
aI152
aI152
aI54
aI152
aI152
aI128
aI270
aI152
aI152
aI152
aI119
aI136
aI154
aI154
aI206
aI152
aI122
aI136
aI137
aI152
aI190
aI152
aI152
aI152
aI152
aI152
aI152
aI152
aI152
aI152
aI152
aI152
aI152
aI152
aI152
aI48
aI209
aI219
aI219
aI219
aI64
aI219
aI219
aI219
aI189
aI60
aI187
aI167
aI219
aI219
aI209
aI219
aI387
aI63
aI152
aI152
aI153
aI152
aI192
aI219
aI219
aI219
aI124
aI219
aI271
aI48
aI152
aI152
aI152
aI171
aI219
aI187
aI219
aI152
aI58
aI152
aI60
aI152
aI136
aI152
aI135
aI136
aI93
aI152
aI152
aI49
aI152
aI121
aI152
aI152
aI152
aI93
aI166
aI152
aI152
aI152
aI68
aI153
aI152
aI152
aI136
aI152
aI152
aI152
aI152
aI152
aI152
aI50
aI152
aI238
aI136
aI219
aI201
aI256
aI219
aI151
aI152
aI152
aI119
aI48
aI152
aI73
aI152
aI136
aI122
aI136
aI58
aI156
aI136
aI292
aI106
aI106
aI106
aI349
aI106
aI191
aI60
aI49
aI192
aI142
aI106
aI226
aI51
aI106
aI106
aI106
aI106
aI106
aI106
aI125
aI107
aI106
aI106
aI106
aI96
aI136
aI136
aI136
aI136
aI170
aI136
aI136
aI136
aI136
aI136
aI136
aI136
aI136
aI136
aI172
aI136
aI85
aI236
aI63
aI219
aI256
aI152
aI173
aI136
aI46
aI136
aI152
aI152
aI152
aI293
aI85
aI255
aI293
aI219
aI152
aI152
aI152
aI152
aI152
aI152
aI152
aI93
aI152
aI62
aI283
aI183
aI69
aI276
aI891
aI119
aI156
aI83
aI138
aI119
aI119
aI109
aI119
aI50
aI119
aI172
aI119
aI119
aI118
aI119
aI119
aI119
aI119
aI119
aI135
aI142
aI135
aI139
aI135
aI136
aI135
aI60
aI107
aI193
aI135
aI49
aI49
aI135
aI110
aI119
aI130
aI119
aI119
aI119
aI66
aI104
aI119
aI164
aI156
aI119
aI120
aI119
aI147
aI119
aI119
aI119
aI119
aI67
aI60
aI52
aI141
aI118
aI136
aI136
aI68
aI136
aI68
aI136
aI136
aI60
aI48
aI136
aI59
aI136
aI136
aI119
aI136
aI136
aI136
aI135
aI136
aI138
aI136
aI184
aI136
aI43
aI118
aI136
aI136
aI136
aI136
aI136
aI122
aI136
aI136
aI136
aI49
aI136
aI193
aI136
aI48
aI136
aI136
aI138
aI85
aI60
aI219
aI117
aI136
aI136
aI106
aI173
aI138
aI106
aI168
aI106
aI155
aI152
aI106
aI168
aI152
aI215
aI140
aI107
aI49
aI168
aI152
aI135
aI194
aI136
aI136
aI153
aI50
aI148
aI136
aI136
aI136
aI136
aI136
aI136
aI136
aI136
aI136
aI152
aI152
aI152
aI152
aI152
aI152
aI58
aI136
aI59
aI136
aI152
aI152
aI60
aI136
aI152
aI324
aI49
aI255
aI239
aI219
aI219
aI58
aI239
aI239
aI219
aI49
aI219
aI219
aI219
aI219
aI238
aI62
aI310
aI62
aI64
aI443
aI72
aI169
aI169
aI169
aI241
aI204
aI169
aI169
aI169
aI42
aI238
aI76
aI50
aI43
aI136
aI58
aI62
aI136
aI153
aI153
aI152
aI136
aI245
aI136
aI153
aI70
aI58
aI238
aI238
aI238
aI238
aI153
aI219
aI239
aI198
aI219
aI134
aI239
aI149
aI193
aI64
aI239
aI136
aI128
aI137
aI238
aI239
aI219
aI292
aI49
aI237
aI219
aI66
aI219
aI239
aI201
aI219
aI239
aI68
aI68
aI239
aI81
aI219
aI238
aI219
aI239
aI50
aI239
aI239
aI191
aI219
aI239
aI239
aI307
aI219
aI66
aI239
aI239
aI239
aI239
aI69
aI154
aI49
aI238
aI239
aI239
aI49
aI219
aI238
aI239
aI122
aI221
aI239
aI64
aI256
aI239
aI60
aI239
aI239
aI239
aI239
aI239
aI239
aI239
aI239
aI59
aI50
aI134
aI201
aI256
aI239
aI239
aI81
aI256
aI122
aI239
aI151
aI239
aI65
aI64
aI239
aI239
aI239
aI50
aI239
aI239
aI189
aI203
aI253
aI75
aI253
aI169
aI169
aI169
aI169
aI86
aI117
aI169
aI70
aI169
aI169
aI169
aI289
aI239
aI239
aI239
aI238
aI239
aI124
aI239
aI124
aI237
aI222
aI239
aI66
aI239
aI239
aI108
aI134
aI239
aI221
aI221
aI62
aI204
aI239
aI202
aI239
aI136
aI221
aI239
aI239
aI239
aI239
aI239
aI239
aI222
aI222
aI221
aI171
aI137
aI149
aI189
aI63
aI152
aI120
aI65
aI43
aI136
aI136
aI145
aI136
aI60
aI136
aI136
aI136
aI128
aI136
aI136
aI136
aI136
aI136
aI136
aI136
aI117
aI85
aI136
aI136
aI136
aI136
aI136
aI136
aI136
aI136
aI136
aI154
aI217
aI136
aI136
aI120
aI145
aI136
aI153
aI83
aI140
aI172
aI152
aI152
aI152
aI152
aI52
aI86
aI152
aI136
aI136
aI153
aI122
aI136
aI136
aI136
aI136
aI136
aI136
aI64
aI136
aI136
aI138
aI136
aI59
aI136
aI136
aI136
aI136
aI161
aI153
aI63
aI153
aI120
aI136
aI136
aI188
aI153
aI153
aI161
aI153
aI153
aI135
aI153
aI153
aI136
aI153
aI153
aI153
aI153
aI153
aI153
aI151
aI153
aI153
aI153
aI50
aI152
aI152
aI70
aI153
aI69
aI155
aI117
aI153
aI81
aI136
aI202
aI166
aI73
aI43
aI155
aI152
aI101
aI152
aI68
aI152
aI49
aI188
aI152
aI153
aI136
aI153
aI153
aI143
aI49
aI152
aI153
aI153
aI153
aI136
aI63
aI153
aI153
aI172
aI153
aI153
aI46
aI153
aI153
aI207
aI152
aI153
aI57
aI101
aI152
aI152
aI153
aI64
aI136
aI153
aI58
aI136
aI153
aI152
aI155
aI153
aI152
aI153
aI153
aI152
aI117
aI152
aI153
aI153
aI153
aI153
aI153
aI136
aI152
aI153
aI170
aI153
aI153
aI153
aI171
aI136
aI153
aI136
aI136
aI153
aI153
aI153
aI41
aI136
aI143
aI152
aI153
aI136
aI153
aI136
aI153
aI69
aI58
aI153
aI153
aI58
aI206
aI153
aI153
aI153
aI153
aI153
aI171
aI73
aI152
aI152
aI152
aI153
aI153
aI154
aI136
aI136
aI136
aI136
aI136
aI136
aI136
aI136
aI136
aI136
aI154
aI154
aI154
aI136
aI136
aI136
aI153
aI184
aI136
aI136
aI136
aI136
aI136
aI136
aI136
aI136
aI136
aI73
aI154
aI154
aI136
aI136
aI136
aI136
aI136
aI58
aI136
aI101
aI137
aI136
aI136
aI136
aI154
aI154
aI154
aI154
aI154
aI140
aI149
aI136
aI136
aI136
aI136
aI136
aI154
aI58
aI48
aI154
aI154
aI142
aI154
aI73
aI154
aI188
aI154
aI44
aI154
aI154
aI86
aI169
aI60
aI198
aI64
aI136
aI154
aI52
aI154
aI154
aI154
aI155
aI154
aI154
aI154
aI120
aI152
aI58
aI136
aI136
aI136
aI136
aI136
aI136
aI154
aI44
aI85
aI122
aI52
aI154
aI176
aI154
aI50
aI154
aI136
aI154
aI154
aI172
aI137
aI155
aI136
aI154
aI196
aI59
aI73
aI198
aI117
aI152
aI127
aI133
aI135
aI152
aI60
aI152
aI152
aI152
aI152
aI153
aI136
aI49
aI154
aI121
aI60
aI136
aI49
aI154
aI153
aI136
aI154
aI154
aI154
aI154
aI171
aI154
aI170
aI153
aI154
aI154
aI154
aI154
aI154
aI154
aI154
aI154
aI139
aI154
aI154
aI154
aI154
aI154
aI153
aI154
aI60
aI154
aI154
aI154
aI134
aI209
aI154
aI154
aI154
aI154
aI154
aI153
aI154
aI154
aI154
aI177
aI154
aI154
aI154
aI154
aI41
aI154
aI154
aI154
aI154
aI135
aI154
aI154
aI154
aI154
aI154
aI64
aI172
aI154
aI154
aI154
aI154
aI136
aI63
aI154
aI154
aI154
aI154
aI154
aI64
aI67
aI154
aI154
aI73
aI63
aI154
aI153
aI154
aI136
aI154
aI136
aI135
aI154
aI154
aI154
aI43
aI154
aI73
aI154
aI46
aI154
aI136
aI154
aI172
aI154
aI154
aI136
aI154
aI58
aI68
aI50
aI154
aI138
aI153
aI121
aI49
aI69
aI136
aI136
aI120
aI136
aI136
aI136
aI49
aI136
aI136
aI136
aI154
aI154
aI154
aI73
aI154
aI49
aI154
aI154
aI171
aI117
aI117
aI117
aI60
aI117
aI151
aI136
aI136
aI136
aI136
aI39
aI136
aI136
aI154
aI188
aI154
aI154
aI154
aI154
aI153
aI73
aI60
aI154
aI120
aI136
aI154
aI154
aI50
aI63
aI58
aI154
aI136
aI136
aI55
aI85
aI154
aI154
aI154
aI154
aI172
aI154
aI154
aI154
aI154
aI154
aI154
aI154
aI44
aI154
aI154
aI59
aI154
aI154
aI154
aI58
aI169
aI152
aI117
aI152
aI117
aI152
aI152
aI117
aI136
aI154
aI154
aI154
aI154
aI154
aI154
aI154
aI154
aI154
aI154
aI117
aI154
aI154
aI154
aI154
aI154
aI154
aI154
aI142
aI154
aI57
aI134
aI134
aI154
aI172
aI153
aI154
aI154
aI154
aI154
aI154
aI154
aI142
aI154
aI154
aI154
aI154
aI138
aI154
aI69
aI154
aI154
aI154
aI154
aI154
aI93
aI43
aI136
aI154
aI59
aI154
aI154
aI46
aI153
aI120
aI117
aI117
aI136
aI136
aI136
aI136
aI121
aI58
aI136
aI136
aI75
aI172
aI154
aI62
aI154
aI154
aI154
aI154
aI154
aI154
aI155
aI136
aI49
aI154
aI154
aI181
aI154
aI63
aI154
aI75
aI154
aI154
aI45
aI154
aI154
aI154
aI136
aI49
aI136
aI136
aI136
aI120
aI136
aI136
aI136
aI154
aI163
aI154
aI154
aI154
aI153
aI106
aI65
aI154
aI154
aI171
aI117
aI63
aI73
aI154
aI117
aI117
aI142
aI73
aI117
aI117
aI117
aI73
aI172
aI58
aI117
aI117
aI136
aI187
aI135
aI120
aI119
aI85
aI136
aI136
aI50
aI40
aI136
aI136
aI38
aI59
aI171
aI154
aI154
aI136
aI136
aI60
aI153
aI136
aI209
aI64
aI154
aI171
aI163
aI41
aI154
aI154
aI154
aI50
aI135
aI154
aI154
aI154
aI135
aI154
aI154
aI154
aI154
aI181
aI187
aI55
aI50
aI134
aI134
aI134
aI137
aI58
aI57
aI154
aI154
aI147
aI154
aI154
aI154
aI136
aI49
aI49
aI154
aI154
aI44
aI101
aI154
aI136
aI85
aI154
aI154
aI50
aI154
aI154
aI154
aI63
aI154
aI154
aI133
aI135
aI152
aI154
aI154
aI39
aI60
aI133
aI133
aI67
aI49
aI168
aI154
aI154
aI154
aI154
aI73
aI151
aI136
aI136
aI136
aI154
aI154
aI154
aI154
aI154
aI154
aI154
aI154
aI154
aI154
aI154
aI154
aI154
aI154
aI154
aI86
aI40
aI60
aI189
aI75
aI64
aI188
aI152
aI154
aI154
aI152
aI154
aI188
aI154
aI154
aI154
aI154
aI154
aI64
aI136
aI154
aI154
aI154
aI154
aI154
aI73
aI68
aI171
aI48
aI154
aI154
aI120
aI136
aI136
aI154
aI154
aI154
aI154
aI154
aI154
aI154
aI154
aI39
aI154
aI43
aI154
aI55
aI117
aI154
aI154
aI154
aI154
aI154
aI153
aI154
aI154
aI154
aI154
aI57
aI171
aI189
aI134
aI85
aI206
aI170
aI170
aI170
aI86
aI154
aI154
aI57
aI154
aI154
aI136
aI154
aI154
aI154
aI57
aI153
aI39
aI154
aI154
aI154
aI121
aI154
aI154
aI73
aI154
aI154
aI154
aI154
aI69
aI55
aI204
aI121
aI44
aI66
aI154
aI154
aI135
aI154
aI154
aI154
aI154
aI55
aI154
aI154
aI154
aI154
aI73
aI85
aI117
aI101
aI154
aI75
aI168
aI154
aI49
aI238
aI153
aI169
aI86
aI138
aI154
aI154
aI154
aI154
aI154
aI154
aI93
aI85
aI50
aI69
aI64
aI59
aI154
aI154
aI154
aI154
aI67
aI204
aI271
aI585
aI660
aI63
aI119
aI136
aI154
aI154
aI154
aI55
aI154
aI154
aI154
aI154
aI118
aI48
aI155
aI68
aI154
aI49
aI154
aI154
aI163
aI180
aI154
aI154
aI54
aI154
aI154
aI154
aI154
aI154
aI154
aI44
aI117
aI117
aI117
aI75
aI57
aI117
aI117
aI117
aI140
aI116
aI60
aI120
aI136
aI154
aI154
aI154
aI154
aI154
aI154
aI154
aI154
aI154
aI50
aI154
aI154
aI171
aI154
aI56
aI154
aI252
aI154
aI49
aI154
aI154
aI56
aI154
aI154
aI64
aI154
aI154
aI153
aI154
aI154
aI154
aI101
aI40
aI154
aI50
aI39
aI172
aI154
aI154
aI58
aI118
aI101
aI136
aI154
aI118
aI154
aI154
aI154
aI154
aI136
aI154
aI154
aI154
aI154
aI154
aI154
aI134
aI154
aI154
aI154
aI154
aI154
aI86
aI120
aI133
aI119
aI136
aI154
aI154
aI136
aI154
aI85
aI154
aI96
aI58
aI39
aI134
aI64
aI154
aI154
aI154
aI154
aI171
aI169
aI117
aI50
aI135
aI151
aI75
aI120
aI157
aI154
aI169
aI56
aI154
aI49
aI154
aI153
aI55
aI154
aI171
aI154
aI154
aI154
aI154
aI154
aI155
aI154
aI154
aI154
aI117
aI117
aI70
aI156
aI156
aI156
aI156
aI210
aI39
aI64
aI155
aI156
aI154
aI172
aI136
aI75
aI76
aI76
aI76
aI160
aI76
aI111
aI64
aI76
aI76
aI125
aI67
aI66
aI136
aI136
aI169
aI136
aI164
aI136
aI153
aI170
aI153
aI153
aI77
aI153
aI153
aI153
aI153
aI120
aI64
aI96
aI118
aI151
aI170
aI154
aI154
aI154
aI154
aI62
aI154
aI49
aI154
aI154
aI170
aI147
aI155
aI41
aI154
aI55
aI154
aI53
aI154
aI64
aI154
aI154
aI121
aI120
aI55
aI40
aI154
aI172
aI154
aI70
aI204
aI53
aI154
aI154
aI155
aI46
aI154
aI154
aI154
aI154
aI50
aI55
aI154
aI154
aI154
aI154
aI154
aI154
aI154
aI154
aI154
aI154
aI55
aI154
aI154
aI191
aI154
aI154
aI154
aI154
aI77
aI154
aI73
aI156
aI156
aI133
aI156
aI156
aI70
aI176
aI136
aI156
aI156
aI87
aI172
aI40
aI62
aI40
aI172
aI156
aI156
aI156
aI193
aI156
aI172
aI53
aI87
aI212
aI154
aI173
aI156
aI156
aI153
aI79
aI274
aI156
aI51
aI239
aI153
aI135
aI64
aI135
aI154
aI154
aI149
aI154
aI239
aI134
aI188
aI153
aI62
aI67
aI44
aI153
aI153
aI271
aI153
aI73
aI273
aI167
aI117
aI117
aI117
aI117
aI117
aI134
aI62
aI182
aI126
aI117
aI117
aI117
aI117
aI117
aI117
aI85
aI151
aI136
aI153
aI168
aI117
aI137
aI137
aI137
aI53
aI153
aI85
aI137
aI423
aI270
aI117
aI137
aI137
aI137
aI54
aI153
aI137
aI54
aI252
aI138
aI138
aI153
aI40
aI138
aI138
aI202
aI117
aI182
aI117
aI62
aI136
aI136
aI137
aI138
aI84
aI84
aI84
aI84
aI84
aI84
aI84
aI83
aI84
aI84
aI50
aI75
aI87
aI87
aI64
aI87
aI87
aI87
aI87
aI87
aI87
aI87
aI65
aI87
aI87
aI87
aI87
aI87
aI66
aI172
aI87
aI87
aI87
aI87
aI84
aI53
aI84
aI53
aI44
aI84
aI84
aI84
aI65
aI84
aI84
aI50
aI84
aI84
aI84
aI150
aI85
aI85
aI84
aI117
aI85
aI84
aI84
aI84
aI39
aI84
aI84
aI60
aI101
aI133
aI85
aI85
aI85
aI44
aI59
aI85
aI84
aI84
aI84
aI73
aI101
aI54
aI54
aI118
aI84
aI75
aI101
aI48
aI101
aI62
aI84
aI84
aI67
aI84
aI84
aI84
aI84
aI84
aI153
aI84
aI86
aI101
aI101
aI64
aI101
aI101
aI118
aI118
aI189
aI123
aI138
aI84
aI84
aI53
aI84
aI84
aI84
aI84
aI64
aI49
aI48
aI137
aI138
aI84
aI84
aI84
aI84
aI84
aI84
aI84
aI84
aI84
aI84
aI117
aI84
aI131
aI171
aI136
aI117
aI135
aI138
aI138
aI138
aI84
aI84
aI84
aI84
aI84
aI84
aI44
aI84
aI84
aI84
aI84
aI84
aI54
aI73
aI50
aI56
aI137
aI138
aI257
aI153
aI149
aI135
aI169
aI131
aI117
aI191
aI162
aI120
aI100
aI62
aI138
aI138
aI138
aI84
aI84
aI84
aI84
aI42
aI68
aI84
aI81
aI84
aI84
aI43
aI59
aI148
aI84
aI84
aI84
aI84
aI84
aI56
aI50
aI84
aI64
aI84
aI84
aI64
aI117
aI84
aI131
aI155
aI84
aI41
aI84
aI84
aI84
aI84
aI84
aI84
aI84
aI84
aI84
aI84
aI84
aI80
aI191
aI137
aI84
aI59
aI84
aI84
aI84
aI84
aI84
aI40
aI84
aI84
aI84
aI84
aI84
aI138
aI48
aI138
aI84
aI84
aI84
aI79
aI84
aI84
aI131
aI46
aI135
aI154
aI120
aI170
aI138
aI138
aI84
aI77
aI253
aI73
aI39
aI133
aI117
aI73
aI57
aI117
aI117
aI155
aI172
aI38
aI136
aI85
aI136
aI169
aI169
aI169
aI169
aI62
aI48
aI135
aI169
aI169
aI169
aI169
aI169
aI169
aI53
aI169
aI169
aI169
aI169
aI81
aI202
aI169
aI169
aI169
aI49
aI169
aI169
aI169
aI169
aI219
aI219
aI169
aI219
aI45
aI169
aI50
aI153
aI219
aI135
aI170
aI191
aI137
aI138
aI129
aI169
aI169
aI169
aI169
aI311
aI41
aI49
aI172
aI120
aI138
aI75
aI155
aI173
aI361
aI169
aI169
aI169
aI135
aI67
aI169
aI169
aI68
aI169
aI84
aI191
aI169
aI169
aI219
aI361
aI277
aI138
aI361
aI361
aI169
aI119
aI140
aI138
aI85
aI361
aI136
aI138
aI361
aI170
aI158
aI278
aI204
aI169
aI151
aI75
aI169
aI118
aI169
aI54
aI153
aI43
aI169
aI169
aI49
aI361
aI40
aI104
aI138
aI157
aI157
aI233
aI76
aI113
aI68
aI140
aI184
aI78
aI140
aI52
aI136
aI138
aI38
aI138
aI153
aI136
aI153
aI54
aI67
aI153
aI169
aI170
aI153
aI169
aI169
aI169
aI121
aI121
aI137
aI190
aI117
aI64
aI211
aI153
aI153
aI53
aI240
aI154
aI241
aI240
aI68
aI75
aI240
aI240
aI294
aI64
aI240
aI240
aI242
aI39
aI292
aI364
aI361
aI169
aI240
aI292
aI328
aI188
aI292
aI292
aI328
aI359
aI292
aI39
aI257
aI277
aI170
aI136
aI41
aI133
aI241
aI240
aI240
aI153
aI57
aI240
aI75
aI292
aI359
aI46
aI134
aI62
aI240
aI240
aI292
aI359
aI140
aI240
aI41
aI240
aI292
aI328
aI240
aI239
aI328
aI359
aI292
aI59
aI151
aI75
aI68
aI342
aI169
aI328
aI59
aI359
aI328
aI77
aI135
aI375
aI290
aI170
aI44
aI55
aI257
aI239
aI262
aI39
aI328
aI39
aI276
aI162
aI118
aI241
aI328
aI682
aI290
aI377
aI68
aI241
aI240
aI240
aI73
aI134
aI73
aI73
aI111
aI117
aI117
aI117
aI117
aI131
aI117
aI73
aI55
aI73
aI117
aI117
aI117
aI41
aI134
aI134
aI134
aI73
aI117
aI117
aI117
aI117
aI117
aI117
aI117
aI117
aI117
aI117
aI49
aI117
aI117
aI44
aI54
aI117
aI117
aI44
aI117
aI56
aI117
aI73
aI117
aI45
aI117
aI117
aI117
aI118
aI117
aI117
aI68
aI55
aI117
aI86
aI43
aI117
aI117
aI56
aI117
aI117
aI117
aI117
aI117
aI117
aI101
aI101
aI117
aI117
aI119
aI117
aI56
aI117
aI133
aI134
aI117
aI40
aI50
aI42
aI154
aI250
aI44
aI73
aI117
aI117
aI117
aI117
aI135
aI64
aI117
aI117
aI117
aI76
aI42
aI64
aI117
aI39
aI188
aI134
aI117
aI117
aI117
aI117
aI42
aI117
aI117
aI117
aI119
aI117
aI117
aI117
aI117
aI117
aI117
aI53
aI117
aI68
aI117
aI117
aI117
aI117
aI117
aI118
aI57
aI117
aI117
aI117
aI117
aI41
aI117
aI117
aI117
aI171
aI297
aI297
aI54
aI50
aI52
aI183
aI117
aI193
aI154
aI62
aI134
aI101
aI93
aI134
aI297
aI50
aI229
aI300
aI156
aI134
aI134
aI46
aI297
aI300
aI134
aI192
aI55
aI73
aI117
aI117
aI117
aI55
aI135
aI117
aI117
aI167
aI117
aI281
aI117
aI42
aI117
aI117
aI117
aI64
aI117
aI291
aI39
aI68
aI54
aI43
aI191
aI134
aI172
aI150
aI45
aI300
aI133
aI325
aI172
aI168
aI193
aI86
aI86
aI297
aI193
aI155
aI155
aI155
aI135
aI194
aI155
aI155
aI117
aI49
aI75
aI155
aI59
aI194
aI194
aI46
aI44
aI155
aI194
aI40
aI73
aI154
aI325
aI240
aI440
aI155
aI155
aI52
aI194
aI194
aI276
aI302
aI297
aI155
aI56
aI73
aI155
aI155
aI155
aI155
aI57
aI303
aI135
aI52
aI241
aI136
aI50
aI155
aI155
aI155
aI52
aI155
aI155
aI155
aI67
aI378
aI241
aI250
aI495
aI241
aI54
aI359
aI61
aI342
aI52
aI50
aI406
aI297
aI155
aI135
aI155
aI43
aI155
aI86
aI48
aI241
aI297
aI117
aI52
aI423
aI155
aI154
aI170
aI155
aI73
aI155
aI155
aI46
aI49
aI101
aI101
aI101
aI115
aI101
aI59
aI101
aI49
aI101
aI101
aI101
aI39
aI49
aI101
aI73
aI93
aI75
aI101
aI101
aI101
aI101
aI101
aI101
aI39
aI101
aI52
aI101
aI101
aI86
aI101
aI101
aI153
aI50
aI101
aI101
aI101
aI46
aI101
aI56
aI57
aI101
aI102
aI56
aI86
aI52
aI101
aI101
aI101
aI101
aI101
aI104
aI101
aI101
aI101
aI101
aI101
aI101
aI101
aI101
aI40
aI101
aI101
aI55
aI101
aI56
aI101
aI101
aI101
aI101
aI101
aI101
aI55
aI101
aI101
aI101
aI101
aI52
aI101
aI56
aI104
aI57
aI101
aI121
aI43
aI101
aI101
aI148
aI153
aI121
aI59
aI101
aI101
aI54
aI101
aI101
aI101
aI49
aI101
aI101
aI101
aI101
aI101
aI101
aI101
aI101
aI43
aI101
aI101
aI101
aI101
aI73
aI59
aI101
aI101
aI146
aI101
aI101
aI50
aI101
aI57
aI101
aI101
aI117
aI101
aI101
aI101
aI101
aI43
aI126
aI101
aI79
aI52
aI52
aI61
aI101
aI69
aI61
aI57
aI101
aI101
aI101
aI101
aI59
aI101
aI153
aI101
aI101
aI75
aI50
aI101
aI102
aI101
aI101
aI101
aI46
aI101
aI100
aI101
aI118
aI73
aI101
aI101
aI101
aI101
aI101
aI101
aI101
aI43
aI69
aI101
aI39
aI101
aI101
aI101
aI101
aI101
aI101
aI43
aI101
aI101
aI101
aI101
aI104
aI40
aI101
aI101
aI101
aI153
aI77
aI148
aI101
aI101
aI101
aI101
aI101
aI101
aI101
aI101
aI54
aI101
aI104
aI49
aI101
aI101
aI101
aI101
aI101
aI46
aI43
aI101
aI101
aI52
aI39
aI77
aI101
aI55
aI101
aI54
aI101
aI101
aI101
aI101
aI101
aI68
aI101
aI69
aI126
aI73
aI39
aI44
aI101
aI101
aI40
aI101
aI101
aI101
aI101
aI101
aI101
aI101
aI101
aI101
aI57
aI95
aI101
aI101
aI52
aI103
aI101
aI101
aI101
aI43
aI101
aI101
aI44
aI101
aI101
aI73
aI101
aI101
aI101
aI101
aI101
aI101
aI101
aI101
aI101
aI50
aI101
aI59
aI101
aI101
aI101
aI101
aI101
aI39
aI101
aI101
aI101
aI149
aI101
aI102
aI153
aI101
aI101
aI101
aI101
aI75
aI101
aI101
aI101
aI153
aI117
aI59
aI49
aI101
aI101
aI104
aI101
aI41
aI101
aI101
aI101
aI101
aI101
aI101
aI41
aI101
aI101
aI146
aI101
aI101
aI101
aI101
aI44
aI55
aI103
aI93
aI101
aI101
aI50
aI101
aI101
aI101
aI101
aI101
aI101
aI101
aI101
aI43
aI101
aI52
aI101
aI148
aI101
aI101
aI101
aI101
aI101
aI101
aI101
aI101
aI101
aI101
aI101
aI61
aI101
aI46
aI101
aI101
aI101
aI101
aI101
aI117
aI101
aI101
aI101
aI101
aI101
aI101
aI54
aI101
aI64
aI101
aI101
aI101
aI101
aI45
aI101
aI101
aI101
aI39
aI101
aI52
aI101
aI101
aI101
aI132
aI101
aI101
aI101
aI101
aI101
aI101
aI101
aI101
aI39
aI101
aI101
aI64
aI101
aI101
aI64
aI132
aI101
aI101
aI101
aI68
aI101
aI40
aI101
aI101
aI101
aI101
aI101
aI101
aI101
aI101
aI101
aI86
aI101
aI101
aI101
aI64
aI96
aI102
aI101
aI101
aI101
aI101
aI39
aI101
aI101
aI101
aI101
aI57
aI52
aI101
aI101
aI101
aI101
aI101
aI101
aI64
aI101
aI101
aI101
aI100
aI54
aI101
aI39
aI101
aI39
aI101
aI101
aI101
aI101
aI101
aI101
aI73
aI101
aI101
aI101
aI49
aI101
aI101
aI101
aI101
aI101
aI101
aI101
aI39
aI101
aI101
aI101
aI101
aI101
aI101
aI93
aI39
aI101
aI101
aI101
aI39
aI101
aI73
aI101
aI101
aI39
aI101
aI40
aI101
aI101
aI154
aI39
aI43
aI101
aI103
aI101
aI101
aI73
aI69
aI101
aI101
aI85
aI54
aI132
aI101
aI101
aI101
aI101
aI43
aI101
aI101
aI101
aI101
aI43
aI101
aI101
aI101
aI101
aI75
aI101
aI137
aI101
aI75
aI101
aI64
aI39
aI101
aI207
aI101
aI86
aI101
aI101
aI101
aI101
aI50
aI101
aI101
aI43
aI101
aI101
aI101
aI62
aI101
aI101
aI52
aI43
aI56
aI146
aI101
aI75
aI117
aI75
aI101
aI101
aI101
aI101
aI69
aI101
aI101
aI117
aI86
aI39
aI101
aI54
aI101
aI101
aI101
aI101
aI101
aI101
aI101
aI101
aI101
aI101
aI101
aI101
aI39
aI101
aI55
aI101
aI101
aI101
aI101
aI101
aI101
aI101
aI101
aI101
aI101
aI101
aI101
aI115
aI101
aI101
aI79
aI43
aI101
aI101
aI101
aI101
aI56
aI101
aI45
aI101
aI101
aI52
aI101
aI101
aI101
aI101
aI77
aI101
aI101
aI153
aI101
aI105
aI101
aI101
aI101
aI101
aI101
aI117
aI43
aI101
aI101
aI101
aI101
aI101
aI41
aI101
aI101
aI101
aI52
aI101
aI82
aI132
aI101
aI101
aI101
aI64
aI101
aI101
aI101
aI100
aI101
aI101
aI56
aI101
aI101
aI41
aI101
aI49
aI105
aI55
aI101
aI101
aI101
aI101
aI101
aI101
aI39
aI49
aI45
aI115
aI146
aI101
aI73
aI101
aI101
aI101
aI101
aI40
aI101
aI102
aI101
aI68
aI101
aI56
aI55
aI41
aI101
aI101
aI101
aI101
aI101
aI101
aI101
aI101
aI101
aI101
aI101
aI101
aI101
aI64
aI101
aI101
aI45
aI101
aI73
aI101
aI101
aI101
aI101
aI101
aI51
aI101
aI101
aI73
aI101
aI61
aI101
aI86
aI101
aI101
aI101
aI101
aI101
aI101
aI39
aI101
aI101
aI101
aI53
aI101
aI101
aI101
aI49
aI101
aI101
aI101
aI101
aI101
aI55
aI101
aI64
aI101
aI101
aI75
aI101
aI101
aI101
aI59
aI52
aI101
aI101
aI101
aI101
aI101
aI101
aI101
aI101
aI85
aI55
aI101
aI101
aI101
aI101
aI101
aI77
aI46
aI101
aI101
aI171
aI101
aI101
aI101
aI101
aI101
aI101
aI101
aI101
aI39
aI101
aI41
aI101
aI101
aI101
aI101
aI101
aI49
aI101
aI41
aI101
aI56
aI101
aI101
aI101
aI101
aI101
aI75
aI45
aI101
aI101
aI101
aI86
aI101
aI49
aI101
aI101
aI101
aI101
aI153
aI52
aI101
aI54
aI101
aI48
aI48
aI101
aI49
aI85
aI101
aI101
aI68
aI73
aI101
aI101
aI101
aI101
aI39
aI56
aI102
aI43
aI101
aI39
aI39
aI101
aI101
aI41
aI54
aI101
aI101
aI101
aI126
aI43
aI73
aI101
aI101
aI101
aI101
aI101
aI69
aI101
aI101
aI101
aI101
aI101
aI101
aI101
aI101
aI101
aI101
aI104
aI101
aI153
aI101
aI85
aI101
aI101
aI101
aI61
aI85
aI85
aI85
aI148
aI85
aI85
aI85
aI64
aI45
aI85
aI85
aI85
aI85
aI86
aI85
aI85
aI85
aI85
aI82
aI85
aI85
aI39
aI85
aI45
aI44
aI85
aI85
aI85
aI134
aI85
aI85
aI75
aI45
aI85
aI85
aI85
aI85
aI85
aI60
aI85
aI85
aI85
aI85
aI85
aI85
aI100
aI85
aI85
aI85
aI85
aI85
aI85
aI85
aI55
aI85
aI85
aI50
aI85
aI43
aI85
aI85
aI85
aI55
aI85
aI85
aI101
aI96
aI64
aI85
aI104
aI85
aI85
aI45
aI85
aI85
aI52
aI85
aI85
aI85
aI52
aI85
aI85
aI101
aI85
aI85
aI85
aI101
aI54
aI85
aI52
aI85
aI49
aI101
aI55
aI103
aI85
aI101
aI85
aI101
aI85
aI101
aI85
aI101
aI85
aI101
aI85
aI101
aI101
aI55
aI59
aI85
aI85
aI44
aI77
aI85
aI85
aI168
aI59
aI85
aI85
aI43
aI85
aI85
aI85
aI119
aI85
aI85
aI40
aI101
aI85
aI85
aI85
aI85
aI39
aI85
aI85
aI132
aI101
aI101
aI101
aI101
aI101
aI101
aI101
aI101
aI43
aI101
aI101
aI101
aI59
aI101
aI101
aI101
aI93
aI101
aI101
aI101
aI101
aI101
aI101
aI101
aI101
aI101
aI147
aI101
aI101
aI43
aI59
aI79
aI69
aI175
aI101
aI101
aI101
aI101
aI101
aI153
aI157
aI101
aI101
aI101
aI101
aI101
aI43
aI101
aI101
aI101
aI101
aI101
aI101
aI101
aI101
aI101
aI101
aI101
aI64
aI101
aI101
aI52
aI100
aI101
aI101
aI101
aI64
aI101
aI68
aI168
aI49
aI101
aI138
aI86
aI101
aI101
aI85
aI101
aI85
aI101
aI85
aI101
aI101
aI75
aI85
aI85
aI101
aI101
aI101
aI101
aI101
aI101
aI101
aI101
aI101
aI48
aI57
aI77
aI101
aI101
aI101
aI101
aI101
aI101
aI101
aI103
aI101
aI79
aI101
aI101
aI101
aI101
aI43
aI43
aI101
aI101
aI45
aI101
aI101
aI69
aI56
aI132
aI101
aI101
aI101
aI101
aI101
aI101
aI101
aI101
aI101
aI49
aI101
aI101
aI85
aI137
aI101
aI101
aI101
aI52
aI101
aI101
aI101
aI101
aI101
aI101
aI101
aI101
aI101
aI126
aI101
aI57
aI101
aI101
aI101
aI101
aI153
aI101
aI101
aI40
aI49
aI43
aI101
aI68
aI101
aI101
aI101
aI41
aI75
aI101
aI101
aI101
aI101
aI101
aI101
aI101
aI101
aI101
aI101
aI101
aI101
aI59
aI101
aI101
aI101
aI101
aI101
aI101
aI101
aI101
aI101
aI64
aI181
aI85
aI85
aI85
aI85
aI85
aI101
aI85
aI56
aI85
aI85
aI85
aI85
aI41
aI85
aI85
aI85
aI85
aI85
aI85
aI85
aI85
aI43
aI85
aI135
aI85
aI150
aI85
aI77
aI85
aI85
aI63
aI46
aI85
aI85
aI85
aI85
aI85
aI85
aI85
aI85
aI85
aI75
aI75
aI85
aI85
aI85
aI85
aI50
aI101
aI101
aI101
aI120
aI101
aI101
aI101
aI64
aI101
aI59
aI101
aI101
aI101
aI79
aI85
aI85
aI176
aI101
aI52
aI101
aI155
aI85
aI192
aI63
aI101
aI49
aI69
aI121
aI101
aI101
aI101
aI50
aI101
aI101
aI59
aI101
aI101
aI101
aI101
aI51
aI101
aI101
aI41
aI101
aI61
aI101
aI101
aI101
aI101
aI101
aI101
aI101
aI101
aI101
aI101
aI77
aI40
aI79
aI176
aI101
aI101
aI101
aI101
aI101
aI101
aI121
aI101
aI101
aI101
aI101
aI101
aI101
aI172
aI52
aI101
aI101
aI101
aI101
aI101
aI101
aI39
aI48
aI121
aI69
aI52
aI101
aI39
aI101
aI101
aI158
aI43
aI101
aI101
aI101
aI101
aI73
aI101
aI101
aI46
aI101
aI101
aI101
aI64
aI147
aI101
aI147
aI101
aI77
aI101
aI64
aI73
aI101
aI101
aI121
aI101
aI101
aI121
aI118
aI101
aI101
aI40
aI86
aI56
aI55
aI75
aI101
aI51
aI101
aI101
aI101
aI101
aI49
aI101
aI153
aI101
aI61
aI51
aI121
aI101
aI50
aI101
aI101
aI101
aI101
aI101
aI149
aI101
aI101
aI59
aI101
aI101
aI49
aI101
aI101
aI106
aI39
aI121
aI52
aI158
aI101
aI101
aI93
aI64
aI101
aI101
aI49
aI46
aI101
aI101
aI101
aI101
aI101
aI43
aI101
aI52
aI73
aI85
aI81
aI84
aI54
aI84
aI84
aI85
aI61
aI85
aI85
aI52
aI85
aI85
aI85
aI85
aI40
aI85
aI85
aI85
aI85
aI85
aI138
aI138
aI85
aI39
aI85
aI43
aI85
aI101
aI101
aI101
aI101
aI101
aI101
aI101
aI101
aI101
aI101
aI101
aI101
aI101
aI101
aI101
aI49
aI101
aI101
aI101
aI101
aI101
aI69
aI101
aI101
aI101
aI101
aI52
aI68
aI101
aI101
aI70
aI121
aI121
aI49
aI121
aI121
aI121
aI121
aI119
aI121
aI121
aI121
aI121
aI68
aI121
aI121
aI121
aI121
aI121
aI121
aI121
aI121
aI118
aI121
aI121
aI121
aI121
aI121
aI86
aI104
aI131
aI77
aI104
aI104
aI46
aI104
aI104
aI106
aI104
aI104
aI46
aI104
aI79
aI39
aI104
aI104
aI48
aI104
aI104
aI104
aI104
aI104
aI104
aI104
aI104
aI49
aI104
aI64
aI104
aI103
aI56
aI104
aI104
aI79
aI104
aI63
aI78
aI104
aI104
aI43
aI104
aI104
aI104
aI104
aI156
aI104
aI104
aI106
aI104
aI44
aI77
aI104
aI104
aI101
aI104
aI104
aI104
aI104
aI104
aI104
aI104
aI104
aI104
aI104
aI104
aI59
aI104
aI69
aI104
aI104
aI104
aI104
aI104
aI104
aI118
aI104
aI104
aI86
aI104
aI104
aI48
aI104
aI103
aI48
aI104
aI75
aI104
aI104
aI104
aI135
aI59
aI104
aI64
aI104
aI104
aI104
aI104
aI104
aI68
aI104
aI104
aI39
aI104
aI43
aI104
aI104
aI54
aI52
aI86
aI104
aI104
aI145
aI104
aI104
aI51
aI104
aI104
aI54
aI135
aI104
aI123
aI104
aI104
aI79
aI59
aI104
aI104
aI104
aI104
aI56
aI104
aI104
aI75
aI104
aI104
aI104
aI138
aI104
aI104
aI104
aI104
aI104
aI104
aI104
aI104
aI104
aI79
aI140
aI104
aI40
aI120
aI104
aI104
aI104
aI121
aI115
aI104
aI121
aI121
aI121
aI121
aI55
aI104
aI118
aI121
aI121
aI39
aI121
aI121
aI121
aI121
aI68
aI85
aI120
aI51
aI121
aI121
aI104
aI104
aI104
aI121
aI156
aI104
aI81
aI121
aI121
aI194
aI64
aI121
aI121
aI121
aI121
aI129
aI121
aI121
aI121
aI191
aI121
aI121
aI121
aI158
aI121
aI121
aI121
aI121
aI68
aI121
aI39
aI121
aI43
aI40
aI121
aI121
aI81
aI49
aI121
aI121
aI121
aI121
aI121
aI121
aI121
aI121
aI121
aI104
aI121
aI121
aI121
aI121
aI121
aI51
aI121
aI120
aI121
aI50
aI121
aI121
aI39
aI73
aI121
aI77
aI121
aI121
aI121
aI121
aI121
aI121
aI51
aI104
aI121
aI121
aI121
aI121
aI121
aI121
aI77
aI121
aI121
aI50
aI121
aI121
aI121
aI149
aI121
aI121
aI52
aI121
aI121
aI121
aI121
aI46
aI138
aI101
aI121
aI121
aI104
aI121
aI43
aI39
aI121
aI44
aI59
aI121
aI121
aI121
aI121
aI121
aI121
aI121
aI121
aI49
aI121
aI56
aI43
aI75
aI121
aI85
aI121
aI120
aI56
aI121
aI121
aI41
aI121
aI44
aI46
aI121
aI104
aI147
aI104
aI49
aI104
aI104
aI104
aI104
aI104
aI104
aI104
aI73
aI54
aI104
aI104
aI104
aI118
aI135
aI39
aI104
aI45
aI59
aI104
aI104
aI104
aI104
aI56
aI104
aI44
aI104
aI104
aI61
aI104
aI104
aI104
aI104
aI43
aI101
aI63
aI52
aI104
aI104
aI104
aI104
aI104
aI104
aI104
aI44
aI119
aI104
aI101
aI104
aI104
aI104
aI104
aI104
aI104
aI104
aI104
aI43
aI104
aI49
aI104
aI104
aI174
aI61
aI121
aI121
aI104
aI121
aI121
aI121
aI121
aI121
aI104
aI121
aI121
aI39
aI121
aI121
aI121
aI121
aI121
aI121
aI121
aI121
aI121
aI121
aI121
aI121
aI123
aI121
aI121
aI121
aI121
aI61
aI121
aI121
aI121
aI48
aI121
aI75
aI120
aI121
aI121
aI121
aI121
aI140
aI140
aI121
aI121
aI121
aI121
aI49
aI121
aI121
aI121
aI55
aI121
aI104
aI43
aI121
aI39
aI121
aI52
aI121
aI121
aI121
aI121
aI68
aI121
aI121
aI121
aI76
aI105
aI104
aI79
aI104
aI121
aI64
aI121
aI104
aI104
aI104
aI104
aI151
aI104
aI156
aI104
aI104
aI104
aI104
aI104
aI104
aI104
aI104
aI104
aI48
aI104
aI104
aI56
aI75
aI104
aI39
aI104
aI56
aI104
aI104
aI104
aI104
aI104
aI104
aI104
aI146
aI46
aI104
aI104
aI105
aI48
aI104
aI104
aI73
aI104
aI39
aI104
aI105
aI41
aI39
aI104
aI106
aI149
aI121
aI121
aI121
aI121
aI118
aI86
aI121
aI158
aI56
aI138
aI121
aI158
aI69
aI158
aI157
aI192
aI157
aI173
aI75
aI40
aI176
aI176
aI39
aI173
aI176
aI176
aI85
aI156
aI193
aI152
aI121
aI119
aI121
aI121
aI193
aI135
aI152
aI120
aI193
aI135
aI152
aI79
aI135
aI43
aI74
aI52
aI152
aI256
aI56
aI327
aI170
aI214
aI135
aI152
aI180
aI118
aI120
aI288
aI135
aI376
aI135
aI327
aI208
aI204
aI288
aI62
aI69
aI135
aI315
aI268
aI208
aI392
aI40
aI204
aI624
aI237
aI284
aI210
aI86
aI135
aI274
aI118
aI118
aI168
aI404
aI135
aI119
aI286
aI171
aI227
aI64
aI208
aI192
aI300
aI345
aI85
aI119
aI56
aI54
aI52
aI206
aI52
aI288
aI206
aI217
aI288
aI162
aI59
aI118
aI54
aI118
aI118
aI118
aI118
aI118
aI118
aI118
aI118
aI118
aI118
aI237
aI288
aI44
aI63
aI237
aI118
aI39
aI118
aI118
aI256
aI43
aI46
aI62
aI237
aI192
aI118
aI43
aI118
aI64
aI121
aI118
aI154
aI190
aI75
aI119
aI118
aI118
aI135
aI59
aI118
aI77
aI143
aI101
aI118
aI118
aI118
aI118
aI153
aI237
aI121
aI63
aI173
aI102
aI118
aI118
aI154
aI190
aI120
aI64
aI121
aI121
aI308
aI121
aI64
aI121
aI121
aI117
aI121
aI121
aI119
aI121
aI48
aI118
aI61
aI118
aI44
aI118
aI118
aI77
aI256
aI151
aI118
aI146
aI118
aI69
aI62
aI63
aI175
aI118
aI118
aI118
aI85
aI63
aI118
aI118
aI118
aI49
aI44
aI118
aI118
aI70
aI43
aI118
aI54
aI118
aI118
aI118
aI40
aI118
aI49
aI118
aI118
aI40
aI46
aI49
aI170
aI218
aI152
aI185
aI43
aI79
aI135
aI135
aI152
aI259
aI121
aI121
aI237
aI56
aI121
aI121
aI59
aI238
aI237
aI121
aI237
aI121
aI121
aI256
aI121
aI288
aI284
aI284
aI348
aI101
aI192
aI101
aI85
aI118
aI118
aI118
aI118
aI118
aI118
aI43
aI118
aI118
aI118
aI50
aI118
aI118
aI86
aI140
aI175
aI61
aI139
aI120
aI56
aI159
aI64
aI175
aI118
aI81
aI140
aI170
aI264
aI140
aI159
aI177
aI118
aI140
aI131
aI55
aI49
aI118
aI140
aI140
aI140
aI55
aI118
aI140
aI140
aI118
aI118
aI140
aI140
aI118
aI85
aI118
aI140
aI140
aI118
aI140
aI48
aI118
aI140
aI118
aI140
aI117
aI140
aI63
aI64
aI118
aI153
aI121
aI207
aI40
aI140
aI61
aI52
aI140
aI140
aI56
aI118
aI118
aI140
aI140
aI140
aI54
aI140
aI120
aI140
aI140
aI146
aI61
aI59
aI121
aI140
aI140
aI140
aI118
aI118
aI140
aI59
aI49
aI40
aI288
aI140
aI43
aI140
aI140
aI131
aI47
aI48
aI118
aI59
aI41
aI118
aI118
aI118
aI118
aI118
aI118
aI118
aI39
aI118
aI118
aI40
aI118
aI118
aI140
aI140
aI140
aI168
aI54
aI118
aI118
aI140
aI140
aI118
aI140
aI154
aI118
aI140
aI40
aI64
aI121
aI118
aI118
aI140
aI140
aI140
aI140
aI140
aI43
aI69
aI118
aI121
aI140
aI139
aI276
aI118
aI59
aI170
aI137
aI140
aI45
aI140
aI140
aI140
aI140
aI158
aI43
aI242
aI146
aI48
aI121
aI41
aI140
aI140
aI140
aI140
aI133
aI242
aI140
aI139
aI118
aI52
aI122
aI120
aI140
aI140
aI56
aI118
aI61
aI118
aI121
aI140
aI140
aI54
aI140
aI140
aI140
aI64
aI121
aI165
aI139
aI238
aI163
aI192
aI118
aI140
aI118
aI118
aI261
aI155
aI140
aI115
aI118
aI41
aI43
aI118
aI118
aI118
aI41
aI43
aI118
aI118
aI118
aI118
aI140
aI140
aI140
aI140
aI140
aI45
aI122
aI140
aI140
aI41
aI89
aI137
aI140
aI140
aI59
aI140
aI59
aI140
aI118
aI140
aI140
aI140
aI49
aI77
aI140
aI61
aI48
aI140
aI84
aI43
aI140
aI214
aI140
aI140
aI160
aI140
aI140
aI140
aI140
aI140
aI59
aI140
aI140
aI140
aI140
aI75
aI190
aI257
aI118
aI118
aI118
aI40
aI102
aI50
aI102
aI102
aI102
aI52
aI68
aI102
aI101
aI102
aI39
aI102
aI101
aI118
aI102
aI102
aI49
aI102
aI63
aI118
aI118
aI121
aI79
aI103
aI121
aI122
aI122
aI121
aI122
aI121
aI122
aI121
aI122
aI75
aI121
aI121
aI121
aI121
aI59
aI121
aI121
aI121
aI168
aI40
aI138
aI121
aI121
aI117
aI140
aI139
aI140
aI140
aI39
aI59
aI140
aI50
aI52
aI140
aI140
aI54
aI39
aI68
aI140
aI186
aI121
aI140
aI140
aI139
aI140
aI140
aI54
aI141
aI140
aI39
aI54
aI140
aI140
aI52
aI59
aI61
aI140
aI155
aI102
aI138
aI64
aI138
aI73
aI285
aI121
aI214
aI63
aI151
aI133
aI118
aI71
aI121
aI118
aI85
aI118
aI118
aI118
aI79
aI118
aI121
aI105
aI85
aI121
aI164
aI101
aI124
aI118
aI118
aI121
aI118
aI48
aI39
aI118
aI118
aI39
aI118
aI151
aI121
aI121
aI118
aI48
aI118
aI143
aI89
aI48
aI137
aI224
aI69
aI118
aI118
aI118
aI47
aI43
aI46
aI102
aI102
aI102
aI102
aI102
aI45
aI102
aI103
aI102
aI102
aI102
aI102
aI102
aI102
aI102
aI102
aI102
aI102
aI102
aI102
aI102
aI102
aI102
aI102
aI102
aI102
aI102
aI102
aI102
aI102
aI103
aI102
aI102
aI102
aI102
aI102
aI77
aI102
aI102
aI102
aI102
aI118
aI118
aI47
aI102
aI102
aI52
aI102
aI104
aI102
aI102
aI102
aI102
aI102
aI102
aI102
aI47
aI97
aI85
aI102
aI102
aI102
aI102
aI46
aI102
aI53
aI51
aI102
aI102
aI136
aI75
aI44
aI50
aI102
aI54
aI79
aI118
aI52
aI85
aI118
aI118
aI118
aI118
aI118
aI118
aI39
aI121
aI45
aI121
aI121
aI101
aI118
aI118
aI59
aI118
aI118
aI118
aI118
aI160
aI118
aI118
aI118
aI101
aI39
aI118
aI102
aI48
aI56
aI118
aI118
aI118
aI118
aI118
aI118
aI73
aI118
aI118
aI118
aI118
aI118
aI118
aI118
aI118
aI118
aI59
aI121
aI118
aI118
aI101
aI118
aI118
aI118
aI64
aI40
aI85
aI118
aI118
aI118
aI118
aI57
aI118
aI85
aI118
aI54
aI49
aI118
aI117
aI69
aI118
aI118
aI118
aI70
aI156
aI39
aI118
aI118
aI102
aI76
aI121
aI121
aI121
aI287
aI189
aI118
aI118
aI118
aI118
aI118
aI77
aI118
aI118
aI64
aI118
aI118
aI118
aI118
aI118
aI118
aI118
aI118
aI118
aI118
aI118
aI39
aI118
aI118
aI118
aI118
aI68
aI118
aI118
aI118
aI47
aI85
aI118
aI118
aI118
aI64
aI118
aI118
aI118
aI118
aI85
aI40
aI73
aI49
aI118
aI118
aI118
aI118
aI190
aI118
aI118
aI118
aI118
aI118
aI118
aI101
aI118
aI118
aI91
aI118
aI118
aI118
aI52
aI118
aI118
aI118
aI118
aI75
aI105
aI121
aI101
aI56
aI118
aI118
aI118
aI118
aI118
aI118
aI118
aI118
aI59
aI118
aI54
aI118
aI118
aI118
aI118
aI118
aI118
aI118
aI56
aI118
aI118
aI118
aI118
aI118
aI118
aI118
aI118
aI118
aI118
aI118
aI102
aI46
aI118
aI118
aI43
aI43
aI154
aI69
aI172
aI206
aI54
aI118
aI118
aI79
aI172
aI191
aI274
aI172
aI191
aI170
aI59
aI191
aI210
aI75
aI304
aI54
aI59
aI172
aI118
aI159
aI118
aI56
aI118
aI118
aI118
aI118
aI118
aI118
aI101
aI118
aI44
aI118
aI118
aI118
aI118
aI162
aI43
aI146
aI118
aI57
aI73
aI118
aI118
aI118
aI118
aI118
aI118
aI60
aI118
aI39
aI118
aI118
aI69
aI39
aI118
aI119
aI118
aI49
aI118
aI45
aI118
aI118
aI118
aI44
aI118
aI118
aI118
aI118
aI118
aI43
aI49
aI118
aI118
aI118
aI68
aI64
aI118
aI118
aI101
aI75
aI118
aI118
aI118
aI118
aI118
aI118
aI118
aI45
aI39
aI39
aI118
aI118
aI63
aI363
aI64
aI760
aI118
aI118
aI118
aI118
aI118
aI118
aI118
aI118
aI118
aI59
aI143
aI85
aI118
aI143
aI81
aI101
aI50
aI118
aI118
aI73
aI118
aI118
aI118
aI118
aI118
aI118
aI41
aI122
aI153
aI119
aI39
aI118
aI101
aI118
aI39
aI118
aI54
aI118
aI63
aI118
aI118
aI46
aI118
aI118
aI118
aI118
aI118
aI118
aI49
aI118
aI52
aI118
aI118
aI118
aI118
aI118
aI118
aI118
aI119
aI118
aI118
aI118
aI63
aI118
aI118
aI118
aI64
aI43
aI153
aI118
aI56
aI118
aI55
aI118
aI118
aI118
aI118
aI119
aI118
aI118
aI43
aI43
aI101
aI56
aI118
aI118
aI119
aI54
aI61
aI50
aI118
aI118
aI118
aI118
aI49
aI118
aI118
aI118
aI186
aI118
aI118
aI134
aI118
aI118
aI85
aI118
aI118
aI77
aI118
aI118
aI118
aI118
aI118
aI118
aI221
aI118
aI118
aI118
aI118
aI118
aI118
aI118
aI118
aI118
aI122
aI44
aI60
aI134
aI140
aI119
aI40
aI118
aI118
aI118
aI118
aI118
aI142
aI73
aI49
aI85
aI140
aI122
aI55
aI118
aI118
aI118
aI118
aI118
aI118
aI156
aI39
aI118
aI118
aI52
aI77
aI59
aI140
aI41
aI140
aI140
aI48
aI140
aI140
aI140
aI140
aI140
aI140
aI140
aI118
aI59
aI118
aI221
aI140
aI140
aI118
aI118
aI68
aI118
aI118
aI68
aI118
aI118
aI118
aI118
aI118
aI118
aI118
aI50
aI118
aI39
aI86
aI118
aI118
aI118
aI118
aI118
aI118
aI118
aI54
aI118
aI118
aI118
aI118
aI118
aI64
aI118
aI118
aI54
aI118
aI118
aI77
aI118
aI79
aI54
aI118
aI118
aI119
aI75
aI118
aI59
aI118
aI118
aI118
aI121
aI47
aI118
aI118
aI118
aI118
aI102
aI118
aI102
aI56
aI143
aI73
aI102
aI102
aI57
aI54
aI102
aI78
aI153
aI102
aI102
aI102
aI102
aI102
aI102
aI54
aI102
aI102
aI102
aI102
aI102
aI101
aI102
aI102
aI52
aI153
aI102
aI102
aI61
aI102
aI102
aI102
aI102
aI102
aI57
aI79
aI75
aI52
aI50
aI102
aI96
aI102
aI102
aI73
aI102
aI57
aI102
aI78
aI118
aI59
aI102
aI102
aI85
aI79
aI102
aI102
aI102
aI102
aI102
aI102
aI102
aI153
aI102
aI102
aI102
aI102
aI102
aI102
aI73
aI43
aI102
aI102
aI102
aI102
aI102
aI52
aI44
aI102
aI102
aI119
aI81
aI102
aI102
aI185
aI102
aI102
aI48
aI102
aI101
aI102
aI102
aI77
aI86
aI121
aI102
aI63
aI102
aI102
aI102
aI102
aI121
aI102
aI102
aI102
aI60
aI102
aI102
aI102
aI102
aI102
aI68
aI102
aI81
aI118
aI140
aI85
aI84
aI140
aI140
aI140
aI102
aI140
aI140
aI161
aI52
aI103
aI61
aI102
aI126
aI39
aI117
aI77
aI41
aI140
aI81
aI140
aI79
aI64
aI140
aI140
aI140
aI56
aI140
aI122
aI50
aI121
aI185
aI49
aI139
aI43
aI172
aI140
aI140
aI84
aI49
aI85
aI140
aI140
aI155
aI77
aI140
aI68
aI140
aI84
aI140
aI156
aI137
aI140
aI140
aI137
aI140
aI137
aI52
aI118
aI118
aI120
aI142
aI118
aI118
aI120
aI43
aI68
aI140
aI140
aI140
aI140
aI140
aI140
aI140
aI186
aI118
aI186
aI118
aI118
aI85
aI156
aI140
aI140
aI140
aI140
aI140
aI140
aI140
aI85
aI137
aI137
aI137
aI55
aI118
aI118
aI120
aI39
aI118
aI118
aI118
aI118
aI118
aI118
aI223
aI140
aI140
aI140
aI140
aI141
aI131
aI118
aI118
aI118
aI118
aI118
aI118
aI118
aI118
aI118
aI85
aI77
aI139
aI140
aI57
aI140
aI140
aI61
aI117
aI56
aI41
aI138
aI162
aI118
aI118
aI118
aI121
aI121
aI165
aI39
aI54
aI140
aI118
aI77
aI140
aI120
aI81
aI64
aI84
aI84
aI84
aI84
aI84
aI84
aI140
aI140
aI140
aI140
aI140
aI102
aI139
aI52
aI140
aI140
aI84
aI140
aI140
aI140
aI39
aI84
aI49
aI49
aI84
aI84
aI84
aI84
aI140
aI140
aI59
aI73
aI84
aI54
aI84
aI43
aI84
aI140
aI75
aI139
aI118
aI119
aI47
aI140
aI140
aI140
aI140
aI140
aI140
aI140
aI140
aI84
aI142
aI56
aI102
aI102
aI118
aI118
aI54
aI140
aI122
aI121
aI140
aI39
aI140
aI140
aI140
aI140
aI140
aI140
aI140
aI140
aI140
aI54
aI138
aI118
aI118
aI168
aI118
aI121
aI118
aI121
aI118
aI68
aI121
aI118
aI121
aI121
aI86
aI81
aI181
aI140
aI44
aI140
aI140
aI139
aI54
aI45
aI39
aI74
aI121
aI74
aI165
aI238
aI168
aI168
aI118
aI121
aI138
aI168
aI118
aI120
aI168
aI118
aI121
aI39
aI140
aI138
aI140
aI120
aI46
aI140
aI140
aI117
aI140
aI140
aI140
aI140
aI40
aI140
aI47
aI138
aI140
aI140
aI79
aI140
aI140
aI138
aI48
aI44
aI174
aI59
aI118
aI118
aI118
aI238
aI238
aI289
aI75
aI122
aI191
aI156
aI257
aI49
aI121
aI121
aI121
aI121
aI121
aI121
aI121
aI121
aI121
aI85
aI168
aI121
aI121
aI121
aI168
aI118
aI79
aI168
aI168
aI118
aI121
aI49
aI43
aI168
aI41
aI121
aI121
aI222
aI41
aI168
aI118
aI101
aI73
aI121
aI44
aI49
aI118
aI118
aI43
aI43
aI57
aI121
aI121
aI54
aI168
aI168
aI118
aI121
aI121
aI168
aI118
aI121
aI168
aI118
aI121
aI140
aI168
aI59
aI121
aI121
aI121
aI121
aI121
aI121
aI185
aI117
aI121
aI43
aI121
aI56
aI43
aI52
aI121
aI168
aI168
aI121
aI46
aI168
aI134
aI118
aI121
aI64
aI168
aI118
aI55
aI118
aI121
aI118
aI121
aI168
aI121
aI121
aI168
aI118
aI121
aI39
aI121
aI46
aI168
aI118
aI121
aI168
aI118
aI121
aI117
aI121
aI121
aI168
aI168
aI121
aI168
aI45
aI192
aI175
aI45
aI121
aI174
aI121
aI121
aI123
aI222
aI258
aI168
aI168
aI77
aI64
aI168
aI56
aI121
aI121
aI121
aI168
aI121
aI44
aI168
aI68
aI121
aI81
aI168
aI168
aI168
aI45
aI121
aI77
aI69
aI168
aI168
aI121
aI121
aI168
aI193
aI168
aI68
aI168
aI168
aI121
aI102
aI168
aI121
aI168
aI121
aI61
aI86
aI118
aI73
aI118
aI168
aI168
aI157
aI118
aI168
aI121
aI168
aI121
aI177
aI134
aI119
aI43
aI85
aI168
aI121
aI168
aI168
aI185
aI102
aI120
aI118
aI118
aI168
aI168
aI121
aI77
aI156
aI118
aI118
aI168
aI168
aI40
aI168
aI168
aI121
aI44
aI39
aI40
aI168
aI121
aI168
aI168
aI121
aI73
aI118
aI163
aI118
aI48
aI118
aI118
aI168
aI75
aI168
aI76
aI134
aI121
aI121
aI121
aI83
aI101
aI121
aI50
aI121
aI118
aI121
aI173
aI118
aI168
aI52
aI54
aI118
aI168
aI168
aI168
aI168
aI121
aI150
aI73
aI118
aI54
aI45
aI168
aI168
aI121
aI121
aI168
aI118
aI121
aI121
aI168
aI75
aI168
aI44
aI121
aI119
aI118
aI121
aI121
aI121
aI121
aI168
aI121
aI39
aI168
aI121
aI54
aI168
aI46
aI119
aI168
aI118
aI120
aI168
aI86
aI102
aI121
aI101
aI134
aI43
aI121
aI121
aI64
aI168
aI121
aI118
aI121
aI168
aI121
aI118
aI119
aI73
aI118
aI121
aI121
aI121
aI118
aI168
aI86
aI73
aI118
aI118
aI168
aI168
aI118
aI168
aI168
aI168
aI118
aI119
aI168
aI168
aI39
aI168
aI121
aI168
aI40
aI166
aI118
aI168
aI168
aI121
aI49
aI192
aI121
aI120
aI121
aI101
aI118
aI121
aI143
aI121
aI69
aI121
aI134
aI49
aI48
aI118
aI121
aI121
aI117
aI137
aI69
aI121
aI55
aI121
aI121
aI52
aI52
aI121
aI40
aI121
aI121
aI75
aI168
aI157
aI52
aI257
aI122
aI52
aI121
aI121
aI121
aI121
aI121
aI121
aI121
aI121
aI121
aI121
aI81
aI258
aI79
aI118
aI48
aI118
aI118
aI118
aI118
aI118
aI118
aI118
aI118
aI63
aI168
aI118
aI168
aI118
aI168
aI118
aI47
aI118
aI118
aI52
aI118
aI168
aI49
aI118
aI49
aI118
aI118
aI43
aI168
aI168
aI64
aI43
aI121
aI121
aI121
aI50
aI118
aI118
aI121
aI121
aI118
aI61
aI121
aI77
aI168
aI168
aI156
aI118
aI45
aI120
aI168
aI168
aI121
aI75
aI168
aI121
aI121
aI61
aI121
aI56
aI49
aI49
aI118
aI118
aI120
aI101
aI121
aI121
aI172
aI149
aI140
aI57
aI77
aI168
aI168
aI121
aI121
aI118
aI121
aI121
aI121
aI121
aI121
aI121
aI121
aI142
aI85
aI121
aI121
aI61
aI121
aI121
aI121
aI121
aI45
aI121
aI121
aI121
aI121
aI121
aI121
aI121
aI121
aI64
aI121
aI56
aI121
aI61
aI86
aI168
aI121
aI118
aI170
aI121
aI44
aI121
aI121
aI121
aI121
aI54
aI168
aI121
aI121
aI121
aI121
aI121
aI121
aI102
aI123
aI168
aI48
aI118
aI121
aI120
aI121
aI121
aI101
aI121
aI59
aI45
aI56
aI56
aI121
aI119
aI121
aI120
aI121
aI121
aI242
aI168
aI168
aI57
aI47
aI63
aI121
aI121
aI121
aI86
aI49
aI121
aI120
aI69
aI77
aI121
aI117
aI63
aI121
aI86
aI121
aI121
aI121
aI121
aI177
aI168
aI61
aI121
aI121
aI121
aI85
aI121
aI121
aI121
aI120
aI121
aI121
aI121
aI39
aI56
aI121
aI121
aI121
aI41
aI123
aI121
aI121
aI54
aI75
aI121
aI156
aI121
aI141
aI121
aI121
aI121
aI158
aI121
aI156
aI121
aI44
aI121
aI61
aI121
aI121
aI121
aI46
aI117
aI121
aI170
aI52
aI121
aI121
aI121
aI142
aI121
aI121
aI121
aI63
aI52
aI121
aI121
aI121
aI46
aI43
aI117
aI121
aI121
aI121
aI121
aI39
aI121
aI121
aI121
aI86
aI121
aI121
aI123
aI52
aI141
aI258
aI47
aI121
aI121
aI121
aI168
aI156
aI121
aI121
aI124
aI121
aI121
aI121
aI121
aI141
aI121
aI121
aI121
aI168
aI192
aI121
aI121
aI121
aI55
aI64
aI45
aI121
aI192
aI43
aI192
aI121
aI158
aI106
aI106
aI106
aI106
aI106
aI106
aI106
aI69
aI54
aI106
aI69
aI106
aI39
aI77
aI106
aI106
aI106
aI125
aI106
aI106
aI39
aI106
aI106
aI63
aI106
aI106
aI106
aI106
aI43
aI106
aI106
aI107
aI77
aI106
aI106
aI106
aI106
aI106
aI106
aI106
aI106
aI106
aI60
aI91
aI106
aI149
aI40
aI106
aI106
aI116
aI55
aI43
aI105
aI105
aI105
aI105
aI105
aI105
aI105
aI52
aI105
aI105
aI47
aI105
aI52
aI105
aI106
aI122
aI105
aI105
aI105
aI105
aI105
aI105
aI43
aI105
aI63
aI81
aI102
aI102
aI56
aI102
aI102
aI39
aI54
aI102
aI102
aI57
aI99
aI105
aI105
aI102
aI105
aI102
aI102
aI105
aI102
aI102
aI102
aI45
aI105
aI46
aI102
aI39
aI102
aI105
aI102
aI168
aI162
aI146
aI61
aI146
aI45
aI146
aI146
aI186
aI255
aI162
aI117
aI117
aI117
aI117
aI43
aI64
aI39
aI117
aI122
aI117
aI77
aI122
aI163
aI122
aI117
aI192
aI122
aI122
aI122
aI117
aI122
aI125
aI117
aI117
aI122
aI122
aI58
aI122
aI121
aI44
aI121
aI158
aI121
aI121
aI121
aI59
aI190
aI158
aI118
aI122
aI121
aI121
aI158
aI66
aI72
aI47
aI117
aI117
aI117
aI167
aI117
aI200
aI122
aI122
aI122
aI121
aI191
aI118
aI39
aI122
aI262
aI43
aI118
aI122
aI120
aI118
aI122
aI41
aI122
aI122
aI122
aI56
aI167
aI206
aI118
aI116
aI118
aI118
aI122
aI122
aI122
aI122
aI118
aI167
aI224
aI201
aI303
aI418
aI169
aI59
aI39
aI187
aI135
aI212
aI172
aI39
aI410
aI148
aI148
aI148
aI148
aI219
aI148
aI148
aI172
aI166
aI172
aI44
aI118
aI50
aI44
aI118
aI122
aI122
aI121
aI121
aI121
aI132
aI132
aI68
aI132
aI60
aI132
aI118
aI122
aI121
aI121
aI54
aI39
aI132
aI132
aI132
aI132
aI50
aI148
aI148
aI118
aI148
aI172
aI154
aI117
aI122
aI122
aI138
aI60
aI121
aI59
aI101
aI66
aI136
aI104
aI132
aI52
aI148
aI148
aI143
aI153
aI139
aI139
aI104
aI104
aI104
aI132
aI132
aI148
aI139
aI121
aI148
aI148
aI102
aI131
aI138
aI63
aI104
aI104
aI104
aI81
aI104
aI43
aI56
aI104
aI104
aI41
aI104
aI104
aI104
aI104
aI121
aI132
aI132
aI132
aI148
aI138
aI104
aI104
aI104
aI104
aI48
aI39
aI75
aI117
aI44
aI132
aI132
aI122
aI104
aI104
aI104
aI123
aI43
aI148
aI138
aI148
aI121
aI75
aI121
aI49
aI148
aI121
aI84
aI55
aI121
aI151
aI121
aI121
aI105
aI54
aI137
aI105
aI148
aI102
aI49
aI149
aI68
aI102
aI41
aI118
aI118
aI69
aI101
aI61
aI59
aI118
aI118
aI39
aI118
aI141
aI118
aI61
aI57
aI118
aI55
aI119
aI105
aI39
aI105
aI105
aI105
aI105
aI105
aI105
aI121
aI52
aI121
aI121
aI102
aI104
aI50
aI117
aI83
aI138
aI104
aI104
aI105
aI102
aI102
aI148
aI118
aI121
aI102
aI102
aI68
aI102
aI75
aI61
aI39
aI102
aI102
aI102
aI102
aI102
aI148
aI121
aI102
aI102
aI148
aI118
aI56
aI101
aI40
aI149
aI118
aI121
aI118
aI50
aI63
aI148
aI139
aI120
aI137
aI105
aI152
aI40
aI148
aI148
aI149
aI120
aI148
aI68
aI118
aI118
aI118
aI118
aI118
aI118
aI81
aI59
aI139
aI139
aI75
aI48
aI105
aI148
aI43
aI40
aI103
aI149
aI118
aI118
aI118
aI118
aI118
aI122
aI122
aI122
aI40
aI122
aI105
aI105
aI148
aI141
aI39
aI103
aI118
aI152
aI105
aI148
aI41
aI119
aI105
aI105
aI105
aI121
aI148
aI68
aI118
aI118
aI118
aI118
aI118
aI154
aI118
aI81
aI81
aI155
aI139
aI139
aI105
aI141
aI103
aI39
aI75
aI105
aI54
aI118
aI103
aI118
aI45
aI118
aI118
aI85
aI103
aI102
aI118
aI118
aI118
aI118
aI118
aI118
aI118
aI122
aI118
aI118
aI118
aI120
aI117
aI122
aI122
aI105
aI105
aI61
aI60
aI148
aI103
aI118
aI118
aI117
aI169
aI68
aI118
aI52
aI84
aI118
aI118
aI118
aI118
aI45
aI86
aI155
aI118
aI118
aI118
aI118
aI118
aI118
aI39
aI118
aI118
aI119
aI116
aI148
aI148
aI148
aI118
aI118
aI118
aI119
aI41
aI41
aI73
aI122
aI122
aI121
aI121
aI162
aI43
aI39
aI120
aI118
aI49
aI68
aI48
aI117
aI144
aI121
aI117
aI60
aI104
aI117
aI117
aI117
aI118
aI138
aI104
aI118
aI118
aI118
aI118
aI118
aI118
aI146
aI75
aI102
aI118
aI118
aI117
aI85
aI63
aI118
aI50
aI118
aI118
aI118
aI118
aI118
aI118
aI118
aI54
aI118
aI119
aI117
aI118
aI118
aI120
aI118
aI118
aI118
aI118
aI118
aI117
aI118
aI48
aI43
aI43
aI122
aI118
aI117
aI117
aI39
aI148
aI148
aI118
aI118
aI148
aI118
aI118
aI118
aI118
aI118
aI118
aI118
aI172
aI103
aI63
aI43
aI54
aI103
aI148
aI148
aI148
aI148
aI146
aI133
aI118
aI39
aI41
aI118
aI118
aI206
aI118
aI118
aI118
aI118
aI136
aI118
aI118
aI39
aI118
aI118
aI118
aI118
aI75
aI52
aI59
aI56
aI118
aI118
aI86
aI59
aI118
aI118
aI118
aI118
aI118
aI118
aI81
aI118
aI118
aI118
aI118
aI122
aI39
aI105
aI157
aI118
aI43
aI59
aI119
aI122
aI61
aI54
aI159
aI52
aI81
aI122
aI105
aI105
aI39
aI105
aI44
aI44
aI105
aI105
aI157
aI139
aI122
aI105
aI59
aI105
aI157
aI118
aI118
aI139
aI118
aI118
aI118
aI64
aI105
aI155
aI122
aI174
aI74
aI157
aI46
aI170
aI192
aI118
aI118
aI141
aI117
aI41
aI43
aI68
aI159
aI118
aI118
aI56
aI118
aI41
aI168
aI75
aI105
aI118
aI118
aI118
aI141
aI118
aI118
aI118
aI39
aI122
aI156
aI118
aI135
aI118
aI118
aI118
aI118
aI118
aI59
aI39
aI155
aI158
aI122
aI159
aI158
aI118
aI118
aI118
aI118
aI118
aI255
aI159
aI158
aI158
aI174
aI158
aI158
aI210
aI63
aI159
aI158
aI158
aI265
aI281
aI105
aI75
aI52
aI306
aI105
aI105
aI118
aI67
aI142
aI141
aI118
aI48
aI118
aI118
aI39
aI158
aI105
aI118
aI118
aI118
aI118
aI118
aI118
aI118
aI73
aI118
aI59
aI117
aI43
aI105
aI135
aI118
aI43
aI56
aI118
aI75
aI118
aI68
aI57
aI168
aI118
aI56
aI39
aI118
aI118
aI118
aI118
aI118
aI118
aI118
aI135
aI118
aI39
aI85
aI118
aI118
aI118
aI118
aI118
aI43
aI118
aI47
aI118
aI118
aI118
aI118
aI118
aI118
aI56
aI118
aI118
aI118
aI118
aI118
aI59
aI69
aI135
aI118
aI118
aI118
aI118
aI75
aI46
aI118
aI52
aI48
aI118
aI118
aI118
aI118
aI43
aI64
aI118
aI73
aI118
aI118
aI143
aI118
aI118
aI118
aI118
aI47
aI54
aI118
aI134
aI118
aI118
aI118
aI118
aI118
aI118
aI118
aI118
aI59
aI118
aI85
aI118
aI118
aI118
aI118
aI118
aI118
aI118
aI118
aI118
aI140
aI118
aI105
aI76
aI81
aI118
aI236
aI52
aI170
aI168
aI135
aI118
aI118
aI101
aI118
aI118
aI44
aI56
aI118
aI118
aI118
aI118
aI118
aI43
aI118
aI56
aI118
aI118
aI118
aI118
aI118
aI118
aI118
aI118
aI118
aI118
aI43
aI102
aI48
aI64
aI61
aI59
aI138
aI118
aI64
aI118
aI52
aI85
aI159
aI118
aI118
aI118
aI118
aI118
aI188
aI118
aI118
aI118
aI61
aI46
aI118
aI118
aI41
aI50
aI118
aI118
aI118
aI118
aI44
aI118
aI119
aI135
aI118
aI118
aI52
aI135
aI118
aI118
aI135
aI118
aI118
aI118
aI135
aI64
aI118
aI118
aI64
aI75
aI69
aI135
aI123
aI135
aI135
aI120
aI135
aI168
aI118
aI135
aI118
aI118
aI135
aI101
aI59
aI118
aI41
aI135
aI135
aI118
aI135
aI50
aI170
aI121
aI135
aI55
aI118
aI118
aI118
aI118
aI118
aI135
aI118
aI118
aI154
aI118
aI118
aI47
aI43
aI135
aI118
aI135
aI54
aI118
aI118
aI135
aI105
aI135
aI135
aI43
aI118
aI135
aI118
aI135
aI135
aI118
aI49
aI52
aI118
aI118
aI118
aI143
aI118
aI69
aI135
aI135
aI124
aI143
aI118
aI135
aI135
aI135
aI135
aI135
aI135
aI135
aI118
aI135
aI118
aI135
aI135
aI118
aI135
aI118
aI135
aI118
aI168
aI135
aI135
aI135
aI135
aI135
aI135
aI135
aI39
aI135
aI135
aI135
aI135
aI49
aI118
aI43
aI118
aI135
aI135
aI81
aI135
aI135
aI135
aI61
aI135
aI44
aI134
aI135
aI135
aI44
aI135
aI135
aI135
aI135
aI135
aI135
aI40
aI135
aI117
aI135
aI135
aI86
aI135
aI135
aI119
aI135
aI75
aI135
aI135
aI135
aI135
aI135
aI135
aI69
aI43
aI75
aI135
aI135
aI52
aI120
aI59
aI135
aI135
aI135
aI45
aI56
aI105
aI135
aI39
aI43
aI135
aI135
aI135
aI135
aI52
aI135
aI135
aI138
aI86
aI55
aI64
aI135
aI135
aI135
aI135
aI135
aI135
aI135
aI135
aI135
aI135
aI117
aI39
aI118
aI135
aI64
aI135
aI40
aI81
aI135
aI135
aI135
aI135
aI135
aI135
aI135
aI50
aI118
aI118
aI101
aI39
aI118
aI118
aI135
aI135
aI135
aI57
aI43
aI54
aI135
aI39
aI135
aI135
aI135
aI57
aI135
aI135
aI105
aI135
aI192
aI118
aI135
aI135
aI135
aI135
aI135
aI43
aI135
aI73
aI121
aI135
aI135
aI135
aI59
aI135
aI135
aI135
aI135
aI73
aI135
aI135
aI40
aI85
aI135
aI85
aI135
aI61
aI135
aI192
aI135
aI56
aI135
aI39
aI135
aI86
aI135
aI63
aI135
aI61
aI135
aI135
aI135
aI52
aI135
aI135
aI44
aI135
aI135
aI135
aI119
aI135
aI56
aI168
aI43
aI135
aI135
aI135
aI168
aI46
aI47
aI39
aI135
aI135
aI135
aI135
aI135
aI40
aI168
aI81
aI135
aI85
aI59
aI44
aI50
aI43
aI135
aI135
aI135
aI63
aI135
aI134
aI138
aI135
aI135
aI135
aI135
aI81
aI135
aI135
aI135
aI135
aI43
aI135
aI167
aI104
aI135
aI135
aI135
aI43
aI135
aI168
aI45
aI135
aI135
aI135
aI135
aI135
aI135
aI54
aI135
aI135
aI135
aI135
aI135
aI135
aI43
aI68
aI135
aI135
aI135
aI135
aI52
aI135
aI40
aI135
aI85
aI135
aI135
aI163
aI135
aI135
aI135
aI135
aI135
aI135
aI135
aI168
aI47
aI135
aI135
aI135
aI135
aI135
aI135
aI135
aI39
aI135
aI135
aI135
aI175
aI43
aI135
aI73
aI73
aI142
aI118
aI118
aI135
aI52
aI64
aI156
aI118
aI40
aI101
aI124
aI146
aI135
aI135
aI135
aI39
aI75
aI135
aI135
aI75
aI135
aI135
aI135
aI56
aI73
aI170
aI135
aI135
aI135
aI135
aI135
aI135
aI75
aI135
aI135
aI39
aI119
aI135
aI134
aI83
aI135
aI135
aI135
aI135
aI135
aI135
aI168
aI135
aI135
aI135
aI213
aI135
aI85
aI135
aI135
aI135
aI135
aI135
aI135
aI117
aI85
aI156
aI135
aI54
aI45
aI48
aI118
aI135
aI54
aI88
aI57
aI118
aI40
aI105
aI39
aI192
aI135
aI57
aI135
aI135
aI73
aI159
aI118
aI134
aI135
aI69
aI135
aI117
aI135
aI135
aI81
aI43
aI135
aI135
aI135
aI135
aI135
aI134
aI39
aI135
aI135
aI135
aI39
aI52
aI135
aI64
aI135
aI120
aI135
aI135
aI81
aI135
aI135
aI135
aI135
aI135
aI54
aI124
aI135
aI135
aI135
aI135
aI135
aI135
aI77
aI185
aI207
aI221
aI136
aI221
aI221
aI221
aI221
aI221
aI86
aI221
aI221
aI41
aI45
aI221
aI221
aI221
aI221
aI221
aI221
aI221
aI152
aI121
aI121
aI121
aI121
aI121
aI45
aI221
aI221
aI138
aI56
aI221
aI54
aI221
aI50
aI221
aI221
aI221
aI163
aI240
aI221
aI221
aI221
aI63
aI221
aI217
aI221
aI61
aI121
aI121
aI75
aI106
aI48
aI221
aI221
aI221
aI221
aI221
aI77
aI55
aI141
aI204
aI52
aI152
aI121
aI43
aI121
aI137
aI56
aI172
aI43
aI40
aI121
aI64
aI121
aI139
aI121
aI121
aI139
aI119
aI121
aI39
aI121
aI189
aI86
aI104
aI43
aI121
aI121
aI121
aI106
aI121
aI121
aI121
aI39
aI121
aI121
aI68
aI137
aI50
aI121
aI121
aI121
aI54
aI106
aI121
aI121
aI172
aI121
aI55
aI43
aI50
aI57
aI77
aI121
aI52
aI121
aI49
aI75
aI121
aI56
aI50
aI105
aI121
aI121
aI121
aI121
aI121
aI121
aI43
aI121
aI121
aI121
aI121
aI46
aI106
aI48
aI121
aI121
aI121
aI121
aI121
aI121
aI121
aI121
aI121
aI121
aI121
aI121
aI121
aI121
aI121
aI121
aI121
aI121
aI69
aI121
aI55
aI39
aI61
aI56
aI121
aI121
aI121
aI121
aI121
aI121
aI121
aI121
aI172
aI73
aI121
aI121
aI121
aI120
aI121
aI121
aI48
aI120
aI121
aI121
aI121
aI119
aI121
aI81
aI120
aI121
aI145
aI121
aI121
aI121
aI121
aI57
aI121
aI121
aI54
aI121
aI121
aI121
aI60
aI135
aI121
aI121
aI121
aI121
aI172
aI121
aI121
aI73
aI104
aI44
aI104
aI104
aI106
aI139
aI104
aI104
aI104
aI50
aI104
aI104
aI104
aI69
aI104
aI69
aI104
aI50
aI39
aI104
aI104
aI104
aI104
aI104
aI104
aI39
aI43
aI104
aI104
aI104
aI61
aI103
aI68
aI104
aI106
aI61
aI104
aI104
aI104
aI56
aI86
aI104
aI104
aI104
aI104
aI104
aI103
aI104
aI50
aI104
aI85
aI104
aI104
aI104
aI104
aI104
aI104
aI104
aI126
aI104
aI104
aI104
aI104
aI104
aI104
aI104
aI104
aI104
aI55
aI39
aI104
aI104
aI104
aI104
aI121
aI104
aI43
aI104
aI63
aI104
aI104
aI104
aI39
aI104
aI104
aI43
aI104
aI104
aI104
aI104
aI104
aI104
aI54
aI104
aI104
aI104
aI104
aI104
aI46
aI104
aI73
aI121
aI85
aI104
aI104
aI104
aI104
aI104
aI104
aI104
aI54
aI104
aI104
aI104
aI103
aI104
aI104
aI104
aI142
aI104
aI104
aI104
aI104
aI104
aI104
aI104
aI104
aI104
aI52
aI47
aI104
aI104
aI104
aI81
aI104
aI104
aI104
aI104
aI104
aI104
aI149
aI104
aI104
aI104
aI104
aI104
aI104
aI104
aI104
aI75
aI121
aI121
aI86
aI121
aI121
aI121
aI121
aI119
aI171
aI56
aI121
aI75
aI121
aI121
aI121
aI121
aI121
aI121
aI119
aI158
aI43
aI121
aI121
aI121
aI102
aI121
aI121
aI121
aI221
aI121
aI121
aI221
aI43
aI82
aI147
aI120
aI121
aI121
aI39
aI46
aI43
aI173
aI172
aI221
aI44
aI239
aI221
aI48
aI221
aI221
aI221
aI168
aI190
aI258
aI238
aI39
aI39
aI257
aI64
aI175
aI152
aI168
aI69
aI189
aI221
aI57
aI221
aI138
aI46
aI221
aI221
aI221
aI221
aI123
aI86
aI221
aI138
aI75
aI169
aI221
aI221
aI221
aI221
aI221
aI221
aI161
aI160
aI170
aI257
aI48
aI168
aI168
aI60
aI168
aI168
aI139
aI39
aI168
aI168
aI168
aI168
aI135
aI135
aI135
aI81
aI135
aI135
aI135
aI135
aI135
aI135
aI59
aI135
aI135
aI43
aI168
aI42
aI118
aI39
aI39
aI135
aI86
aI135
aI135
aI116
aI168
aI168
aI168
aI168
aI168
aI73
aI135
aI119
aI168
aI168
aI168
aI43
aI135
aI50
aI135
aI69
aI75
aI40
aI168
aI168
aI168
aI168
aI59
aI85
aI86
aI168
aI168
aI39
aI135
aI134
aI135
aI136
aI168
aI152
aI168
aI168
aI168
aI168
aI105
aI121
aI121
aI121
aI121
aI121
aI85
aI56
aI168
aI121
aI121
aI121
aI121
aI59
aI121
aI75
aI52
aI168
aI40
aI157
aI39
aI121
aI121
aI121
aI121
aI121
aI121
aI121
aI121
aI121
aI121
aI81
aI168
aI168
aI44
aI63
aI121
aI121
aI121
aI121
aI121
aI73
aI64
aI48
aI168
aI121
aI121
aI73
aI121
aI39
aI121
aI39
aI121
aI121
aI121
aI121
aI63
aI121
aI68
aI56
aI118
aI121
aI121
aI121
aI121
aI121
aI121
aI106
aI102
aI52
aI121
aI43
aI49
aI121
aI121
aI86
aI121
aI47
aI121
aI121
aI121
aI121
aI121
aI121
aI121
aI121
aI40
aI137
aI121
aI120
aI121
aI121
aI44
aI121
aI121
aI121
aI121
aI121
aI121
aI121
aI121
aI121
aI121
aI121
aI85
aI121
aI121
aI121
aI121
aI57
aI121
aI105
aI121
aI121
aI121
aI75
aI121
aI121
aI121
aI121
aI172
aI104
aI104
aI104
aI104
aI43
aI104
aI106
aI104
aI106
aI104
aI61
aI104
aI105
aI106
aI68
aI104
aI56
aI105
aI61
aI104
aI104
aI104
aI104
aI104
aI104
aI106
aI104
aI104
aI104
aI123
aI104
aI104
aI54
aI104
aI104
aI104
aI106
aI104
aI85
aI104
aI104
aI104
aI104
aI64
aI55
aI68
aI104
aI104
aI104
aI104
aI104
aI104
aI117
aI140
aI104
aI156
aI46
aI104
aI104
aI104
aI104
aI104
aI104
aI43
aI104
aI104
aI104
aI104
aI104
aI104
aI106
aI104
aI104
aI104
aI68
aI104
aI106
aI104
aI39
aI104
aI121
aI104
aI104
aI104
aI104
aI57
aI122
aI104
aI104
aI43
aI104
aI156
aI104
aI104
aI43
aI104
aI122
aI104
aI104
aI104
aI104
aI104
aI104
aI104
aI104
aI104
aI104
aI104
aI104
aI104
aI104
aI104
aI104
aI104
aI73
aI104
aI104
aI49
aI104
aI85
aI52
aI104
aI104
aI39
aI164
aI122
aI104
aI104
aI104
aI104
aI102
aI104
aI104
aI104
aI49
aI104
aI104
aI85
aI75
aI121
aI121
aI121
aI121
aI121
aI65
aI121
aI121
aI52
aI163
aI121
aI121
aI105
aI121
aI59
aI121
aI48
aI63
aI52
aI121
aI121
aI121
aI171
aI121
aI121
aI121
aI52
aI121
aI56
aI121
aI121
aI43
aI74
aI56
aI121
aI39
aI121
aI121
aI121
aI121
aI120
aI52
aI142
aI121
aI119
aI144
aI121
aI121
aI106
aI121
aI121
aI121
aI48
aI121
aI106
aI121
aI86
aI119
aI121
aI52
aI121
aI121
aI121
aI121
aI121
aI121
aI121
aI121
aI121
aI121
aI52
aI121
aI121
aI121
aI155
aI121
aI121
aI43
aI119
aI44
aI121
aI121
aI172
aI104
aI121
aI164
aI121
aI121
aI119
aI39
aI121
aI121
aI121
aI172
aI121
aI121
aI121
aI121
aI135
aI49
aI121
aI105
aI121
aI63
aI121
aI171
aI105
aI104
aI106
aI121
aI121
aI121
aI139
aI121
aI121
aI44
aI121
aI121
aI121
aI121
aI121
aI68
aI121
aI121
aI121
aI121
aI121
aI85
aI121
aI121
aI43
aI121
aI171
aI121
aI121
aI39
aI123
aI61
aI121
aI48
aI73
aI121
aI68
aI121
aI121
aI121
aI121
aI105
aI56
aI121
aI121
aI121
aI121
aI121
aI57
aI40
aI121
aI121
aI73
aI44
aI43
aI161
aI43
aI221
aI121
aI121
aI121
aI121
aI121
aI156
aI50
aI39
aI121
aI140
aI121
aI75
aI137
aI164
aI121
aI121
aI45
aI121
aI121
aI164
a.