(lp0
I49
aI49
aI49
aI49
aI49
aI49
aI49
aI49
aI49
aI49
aI49
aI49
aI49
aI49
aI49
aI49
aI49
aI49
aI49
aI49
aI49
aI49
aI49
aI49
aI49
aI49
aI49
aI49
aI49
aI49
aI49
aI49
aI49
aI49
aI49
aI49
aI49
aI49
aI49
aI49
aI49
aI49
aI49
aI49
aI49
aI49
aI49
aI49
aI49
aI49
aI49
aI49
aI49
aI49
aI49
aI49
aI49
aI49
aI788
aI49
aI49
aI49
aI49
aI49
aI49
aI49
aI49
aI49
aI49
aI49
aI49
aI49
aI49
aI49
aI49
aI49
aI49
aI49
aI49
aI49
aI49
aI49
aI49
aI49
aI49
aI49
aI49
aI49
aI49
aI49
aI49
aI49
aI49
aI49
aI49
aI49
aI49
aI49
aI49
aI49
aI49
aI49
aI901
aI49
aI49
aI49
aI49
aI49
aI49
aI49
aI49
aI49
aI49
aI49
aI49
aI49
aI49
aI49
aI49
aI49
aI53
aI49
aI49
aI49
aI49
aI49
aI49
aI49
aI49
aI49
aI49
aI49
aI49
aI49
aI49
aI49
aI49
aI49
aI49
aI49
aI49
aI49
aI49
aI49
aI49
aI49
aI49
aI49
aI49
aI49
aI49
aI49
aI901
aI49
aI49
aI49
aI67
aI49
aI49
aI49
aI49
aI49
aI49
aI49
aI49
aI49
aI49
aI49
aI49
aI49
aI49
aI49
aI49
aI49
aI49
aI49
aI49
aI49
aI49
aI49
aI49
aI49
aI49
aI49
aI49
aI49
aI49
aI49
aI49
aI49
aI49
aI49
aI49
aI49
aI49
aI49
aI49
aI49
aI49
aI49
aI49
aI49
aI49
aI49
aI49
aI49
aI49
aI49
aI49
aI49
aI49
aI49
aI49
aI49
aI49
aI49
aI49
aI49
aI49
aI49
aI49
aI49
aI49
aI49
aI49
aI49
aI49
aI49
aI49
aI49
aI49
aI49
aI49
aI49
aI49
aI49
aI49
aI49
aI49
aI49
aI49
aI49
aI49
aI49
aI49
aI49
aI49
aI49
aI49
aI49
aI67
aI49
aI49
aI49
aI49
aI49
aI49
aI49
aI49
aI49
aI49
aI49
aI49
aI49
aI49
aI49
aI49
aI49
aI49
aI49
aI49
aI49
aI49
aI49
aI49
aI49
aI49
aI49
aI49
aI49
aI49
aI49
aI49
aI49
aI49
aI49
aI49
aI49
aI49
aI49
aI49
aI901
aI49
aI49
aI49
aI49
aI49
aI49
aI49
aI49
aI49
aI49
aI49
aI49
aI49
aI49
aI49
aI49
aI67
aI49
aI49
aI49
aI49
aI49
aI49
aI49
aI49
aI49
aI49
aI49
aI49
aI49
aI49
aI49
aI49
aI49
aI49
aI49
aI49
aI67
aI49
aI49
aI49
aI49
aI49
aI49
aI49
aI49
aI49
aI49
aI49
aI49
aI49
aI49
aI49
aI49
aI49
aI49
aI49
aI49
aI49
aI49
aI49
aI49
aI49
aI49
aI606
aI49
aI49
aI49
aI49
aI49
aI49
aI49
aI49
aI901
aI49
aI49
aI49
aI49
aI49
aI49
aI49
aI49
aI49
aI49
aI49
aI49
aI49
aI49
aI49
aI901
aI49
aI49
aI49
aI49
aI53
aI49
aI49
aI49
aI49
aI49
aI49
aI49
aI49
aI49
aI49
aI49
aI49
aI49
aI49
aI49
aI49
aI49
aI49
aI49
aI49
aI49
aI49
aI49
aI49
aI53
aI49
aI49
aI49
aI49
aI49
aI49
aI49
aI49
aI49
aI49
aI49
aI49
aI49
aI49
aI49
aI49
aI49
aI49
aI49
aI49
aI49
aI49
aI49
aI49
aI49
aI49
aI49
aI49
aI49
aI49
aI49
aI49
aI49
aI49
aI49
aI49
aI49
aI49
aI49
aI49
aI49
aI49
aI49
aI67
aI49
aI49
aI49
aI49
aI49
aI49
aI49
aI49
aI49
aI49
aI49
aI49
aI49
aI49
aI49
aI49
aI49
aI49
aI49
aI49
aI49
aI49
aI49
aI49
aI49
aI50
aI49
aI49
aI49
aI49
aI49
aI49
aI49
aI49
aI49
aI49
aI49
aI49
aI49
aI49
aI49
aI49
aI49
aI49
aI49
aI49
aI49
aI49
aI49
aI49
aI49
aI49
aI49
aI49
aI67
aI49
aI49
aI49
aI49
aI49
aI901
aI49
aI49
aI49
aI49
aI49
aI49
aI49
aI49
aI49
aI49
aI49
aI49
aI49
aI49
aI49
aI49
aI49
aI49
aI49
aI49
aI49
aI49
aI49
aI49
aI49
aI49
aI49
aI53
aI49
aI49
aI49
aI49
aI49
aI49
aI49
aI49
aI49
aI49
aI49
aI49
aI49
aI49
aI49
aI49
aI49
aI49
aI49
aI49
aI49
aI49
aI49
aI49
aI49
aI49
aI49
aI49
aI49
aI49
aI49
aI49
aI49
aI49
aI49
aI49
aI53
aI49
aI49
aI49
aI49
aI49
aI49
aI49
aI49
aI49
aI49
aI49
aI49
aI49
aI49
aI49
aI49
aI49
aI49
aI49
aI49
aI49
aI49
aI49
aI49
aI49
aI49
aI49
aI49
aI49
aI49
aI49
aI49
aI49
aI49
aI49
aI49
aI49
aI49
aI49
aI49
aI49
aI49
aI49
aI49
aI49
aI49
aI49
aI49
aI49
aI49
aI49
aI49
aI49
aI49
aI49
aI49
aI49
aI49
aI49
aI49
aI49
aI49
aI49
aI49
aI49
aI49
aI49
aI49
aI49
aI49
aI49
aI67
aI49
aI49
aI49
aI49
aI49
aI49
aI49
aI49
aI49
aI53
aI49
aI49
aI49
aI49
aI49
aI49
aI901
aI901
aI49
aI49
aI49
aI49
aI49
aI49
aI49
aI49
aI49
aI49
aI49
aI49
aI49
aI49
aI49
aI49
aI49
aI49
aI49
aI49
aI49
aI49
aI49
aI49
aI49
aI49
aI49
aI49
aI49
aI49
aI49
aI49
aI49
aI49
aI49
aI49
aI49
aI49
aI49
aI49
aI49
aI49
aI49
aI49
aI49
aI49
aI49
aI49
aI49
aI49
aI49
aI49
aI49
aI49
aI49
aI49
aI49
aI49
aI49
aI49
aI54
aI49
aI49
aI49
aI49
aI49
aI49
aI49
aI49
aI49
aI49
aI49
aI49
aI49
aI49
aI901
aI49
aI49
aI49
aI49
aI49
aI49
aI49
aI49
aI49
aI49
aI49
aI49
aI49
aI49
aI49
aI49
aI901
aI49
aI49
aI49
aI49
aI49
aI49
aI67
aI49
aI49
aI49
aI49
aI49
aI49
aI49
aI49
aI49
aI49
aI49
aI49
aI49
aI49
aI49
aI49
aI49
aI49
aI49
aI49
aI49
aI49
aI49
aI49
aI49
aI49
aI49
aI49
aI49
aI49
aI49
aI49
aI49
aI49
aI49
aI49
aI49
aI49
aI49
aI49
aI49
aI49
aI49
aI49
aI49
aI49
aI49
aI49
aI49
aI49
aI49
aI49
aI49
aI49
aI49
aI49
aI49
aI49
aI49
aI49
aI49
aI49
aI49
aI49
aI49
aI49
aI49
aI49
aI49
aI49
aI49
aI49
aI49
aI49
aI49
aI49
aI49
aI49
aI49
aI49
aI49
aI49
aI49
aI67
aI49
aI49
aI49
aI49
aI49
aI49
aI49
aI49
aI49
aI49
aI49
aI49
aI49
aI49
aI49
aI49
aI49
aI49
aI49
aI49
aI49
aI49
aI49
aI49
aI49
aI49
aI49
aI49
aI49
aI49
aI49
aI49
aI49
aI49
aI49
aI49
aI49
aI49
aI49
aI49
aI49
aI49
aI49
aI49
aI49
aI49
aI49
aI49
aI49
aI49
aI49
aI49
aI49
aI49
aI49
aI49
aI49
aI49
aI49
aI49
aI49
aI49
aI49
aI49
aI49
aI49
aI49
aI49
aI49
aI49
aI901
aI49
aI49
aI49
aI49
aI49
aI49
aI49
aI49
aI49
aI49
aI49
aI49
aI49
aI49
aI49
aI49
aI49
aI49
aI49
aI49
aI49
aI49
aI49
aI49
aI49
aI49
aI49
aI49
aI49
aI49
aI49
aI49
aI49
aI49
aI49
aI49
aI49
aI49
aI49
aI49
aI49
aI901
aI49
aI49
aI49
aI49
aI49
aI49
aI652
aI49
aI49
aI49
aI49
aI49
aI49
aI49
aI49
aI49
aI49
aI49
aI49
aI49
aI49
aI49
aI49
aI49
aI49
aI49
aI49
aI49
aI49
aI49
aI49
aI49
aI49
aI49
aI49
aI49
aI49
aI49
aI49
aI49
aI49
aI49
aI49
aI49
aI49
aI49
aI49
aI49
aI49
aI53
aI49
aI49
aI49
aI49
aI49
aI49
aI49
aI49
aI49
aI49
aI49
aI49
aI49
aI49
aI49
aI49
aI49
aI49
aI49
aI49
aI49
aI49
aI49
aI49
aI49
aI49
aI49
aI49
aI49
aI49
aI49
aI49
aI49
aI49
aI49
aI49
aI49
aI49
aI49
aI49
aI49
aI49
aI49
aI49
aI49
aI49
aI49
aI49
aI49
aI49
aI49
aI49
aI49
aI49
aI49
aI49
aI49
aI49
aI49
aI49
aI49
aI49
aI49
aI49
aI49
aI49
aI49
aI49
aI49
aI49
aI49
aI43
aI49
aI49
aI49
aI49
aI901
aI49
aI49
aI49
aI49
aI49
aI49
aI49
aI49
aI49
aI49
aI49
aI49
aI49
aI49
aI49
aI49
aI49
aI49
aI49
aI49
aI49
aI49
aI49
aI49
aI49
aI49
aI49
aI49
aI49
aI49
aI49
aI49
aI49
aI49
aI49
aI49
aI49
aI49
aI49
aI49
aI49
aI49
aI49
aI49
aI49
aI49
aI49
aI49
aI49
aI49
aI49
aI49
aI49
aI49
aI49
aI49
aI49
aI49
aI49
aI49
aI49
aI49
aI49
aI49
aI49
aI53
aI49
aI49
aI49
aI49
aI49
aI49
aI49
aI49
aI49
aI49
aI49
aI49
aI49
aI49
aI49
aI49
aI49
aI49
aI53
aI49
aI49
aI901
aI49
aI49
aI49
aI49
aI49
aI49
aI49
aI49
aI49
aI49
aI49
aI49
aI49
aI49
aI49
aI49
aI49
aI49
aI49
aI49
aI49
aI49
aI49
aI49
aI49
aI49
aI49
aI49
aI49
aI49
aI49
aI49
aI49
aI49
aI49
aI49
aI49
aI49
aI49
aI901
aI49
aI49
aI49
aI49
aI49
aI49
aI49
aI49
aI49
aI49
aI49
aI49
aI901
aI49
aI49
aI49
aI49
aI49
aI49
aI49
aI49
aI49
aI49
aI49
aI49
aI49
aI49
aI49
aI49
aI49
aI49
aI49
aI49
aI49
aI49
aI49
aI901
aI49
aI49
aI49
aI49
aI49
aI49
aI49
aI49
aI49
aI49
aI49
aI49
aI49
aI49
aI49
aI49
aI49
aI49
aI49
aI49
aI49
aI49
aI49
aI49
aI49
aI49
aI49
aI49
aI53
aI49
aI49
aI49
aI901
aI49
aI49
aI49
aI49
aI49
aI49
aI49
aI49
aI49
aI901
aI49
aI49
aI49
aI49
aI49
aI49
aI49
aI901
aI49
aI49
aI49
aI49
aI49
aI49
aI49
aI49
aI49
aI49
aI49
aI49
aI49
aI49
aI49
aI49
aI49
aI49
aI49
aI49
aI49
aI49
aI49
aI49
aI49
aI49
aI49
aI49
aI49
aI49
aI49
aI49
aI49
aI49
aI49
aI49
aI49
aI49
aI49
aI49
aI49
aI49
aI49
aI53
aI49
aI49
aI49
aI49
aI49
aI49
aI49
aI49
aI49
aI49
aI49
aI49
aI49
aI49
aI49
aI49
aI49
aI49
aI49
aI49
aI49
aI49
aI49
aI49
aI49
aI49
aI49
aI49
aI49
aI49
aI49
aI789
aI49
aI49
aI49
aI49
aI49
aI49
aI49
aI49
aI49
aI49
aI49
aI49
aI49
aI49
aI49
aI49
aI49
aI49
aI49
aI49
aI49
aI49
aI49
aI49
aI49
aI49
aI49
aI49
aI49
aI49
aI49
aI49
aI49
aI49
aI49
aI49
aI49
aI49
aI49
aI49
aI49
aI49
aI49
aI49
aI49
aI49
aI49
aI49
aI49
aI49
aI49
aI708
aI49
aI49
aI49
aI49
aI49
aI49
aI49
aI49
aI49
aI49
aI49
aI49
aI49
aI49
aI49
aI49
aI49
aI49
aI49
aI49
aI49
aI49
aI49
aI49
aI49
aI49
aI901
aI541
aI901
aI67
aI901
aI901
aI49
aI901
aI901
aI901
aI901
aI901
aI395
aI901
aI111
aI561
aI99
aI901
aI901
aI38
aI901
aI827
aI364
aI901
aI901
aI901
aI395
aI901
aI50
aI53
aI50
aI52
aI901
aI655
aI901
aI60
aI39
aI39
aI39
aI39
aI39
aI39
aI54
aI39
aI39
aI52
aI39
aI39
aI39
aI52
aI39
aI39
aI69
aI51
aI51
aI39
aI49
aI39
aI59
aI39
aI39
aI52
aI40
aI39
aI39
aI39
aI39
aI39
aI51
aI62
aI39
aI39
aI39
aI39
aI39
aI59
aI39
aI39
aI58
aI58
aI48
aI57
aI39
aI39
aI66
aI50
aI39
aI65
aI50
aI39
aI50
aI55
aI53
aI51
aI39
aI56
aI39
aI52
aI39
aI55
aI51
aI39
aI57
aI39
aI52
aI39
aI39
aI39
aI54
aI39
aI39
aI39
aI39
aI50
aI51
aI39
aI39
aI39
aI53
aI39
aI53
aI39
aI39
aI39
aI49
aI49
aI50
aI59
aI59
aI58
aI58
aI57
aI58
aI58
aI49
aI58
aI57
aI57
aI62
aI58
aI57
aI57
aI57
aI56
aI50
aI49
aI57
aI53
aI52
aI57
aI50
aI50
aI57
aI57
aI46
aI61
aI57
aI57
aI57
aI51
aI57
aI57
aI53
aI56
aI56
aI56
aI56
aI56
aI56
aI55
aI51
aI55
aI55
aI55
aI50
aI51
aI53
aI55
aI54
aI51
aI54
aI54
aI54
aI53
aI53
aI53
aI53
aI53
aI53
aI53
aI53
aI53
aI46
aI53
aI53
aI53
aI53
aI53
aI53
aI53
aI53
aI53
aI52
aI53
aI53
aI53
aI53
aI53
aI53
aI53
aI53
aI53
aI49
aI52
aI53
aI53
aI53
aI53
aI53
aI53
aI53
aI50
aI51
aI53
aI52
aI53
aI53
aI47
aI53
aI53
aI53
aI53
aI53
aI76
aI44
aI53
aI53
aI51
aI50
aI50
aI53
aI53
aI44
aI53
aI52
aI53
aI53
aI52
aI53
aI53
aI52
aI47
aI53
aI53
aI53
aI53
aI53
aI53
aI53
aI53
aI53
aI53
aI53
aI53
aI53
aI53
aI53
aI54
aI53
aI53
aI53
aI53
aI53
aI53
aI51
aI53
aI53
aI53
aI53
aI53
aI53
aI49
aI53
aI53
aI53
aI53
aI53
aI53
aI52
aI53
aI53
aI54
aI53
aI64
aI51
aI53
aI52
aI53
aI53
aI51
aI51
aI54
aI54
aI54
aI50
aI53
aI53
aI53
aI54
aI48
aI53
aI53
aI49
aI53
aI53
aI53
aI58
aI49
aI54
aI53
aI53
aI53
aI53
aI53
aI49
aI53
aI53
aI54
aI53
aI47
aI100
aI53
aI50
aI51
aI52
aI53
aI53
aI62
aI53
aI49
aI50
aI52
aI53
aI53
aI53
aI53
aI61
aI53
aI50
aI53
aI53
aI54
aI53
aI53
aI53
aI53
aI53
aI53
aI53
aI49
aI53
aI53
aI53
aI49
aI53
aI53
aI53
aI53
aI53
aI53
aI54
aI53
aI52
aI53
aI53
aI53
aI51
aI53
aI52
aI52
aI53
aI53
aI53
aI53
aI53
aI52
aI53
aI51
aI53
aI53
aI48
aI53
aI53
aI53
aI53
aI53
aI53
aI53
aI53
aI53
aI53
aI53
aI49
aI53
aI53
aI60
aI50
aI53
aI53
aI50
aI73
aI51
aI51
aI52
aI50
aI50
aI50
aI49
aI49
aI49
aI50
aI49
aI49
aI49
aI50
aI50
aI50
aI49
aI49
aI49
aI60
aI49
aI49
aI49
aI49
aI49
aI51
aI49
aI49
aI49
aI54
aI49
aI49
aI49
aI49
aI49
aI54
aI51
aI64
aI49
aI50
aI69
aI49
aI49
aI49
aI64
aI49
aI60
aI49
aI49
aI49
aI49
aI49
aI49
aI49
aI49
aI49
aI50
aI49
aI49
aI49
aI49
aI49
aI49
aI39
aI52
aI49
aI49
aI49
aI49
aI49
aI49
aI50
aI49
aI49
aI52
aI49
aI49
aI49
aI49
aI49
aI49
aI49
aI49
aI49
aI49
aI49
aI49
aI49
aI49
aI49
aI50
aI49
aI51
aI49
aI49
aI49
aI40
aI49
aI49
aI49
aI49
aI57
aI49
aI49
aI49
aI69
aI51
aI45
aI49
aI49
aI49
aI49
aI58
aI49
aI49
aI49
aI49
aI49
aI49
aI49
aI49
aI49
aI49
aI49
aI49
aI49
aI49
aI49
aI48
aI49
aI50
aI49
aI51
aI49
aI49
aI49
aI49
aI50
aI49
aI49
aI52
aI51
aI49
aI49
aI49
aI49
aI49
aI49
aI49
aI49
aI49
aI69
aI49
aI50
aI50
aI50
aI49
aI49
aI50
aI52
aI48
aI49
aI49
aI49
aI49
aI47
aI49
aI49
aI49
aI49
aI51
aI51
aI49
aI51
aI50
aI50
aI51
aI51
aI51
aI60
aI50
aI50
aI51
aI51
aI51
aI51
aI51
aI51
aI50
aI51
aI69
aI49
aI51
aI51
aI60
aI51
aI49
aI51
aI51
aI49
aI51
aI49
aI51
aI48
aI51
aI65
aI51
aI51
aI49
aI51
aI49
aI51
aI51
aI51
aI51
aI51
aI51
aI51
aI51
aI51
aI51
aI51
aI51
aI51
aI52
aI51
aI51
aI51
aI50
aI50
aI51
aI48
aI47
aI69
aI51
aI51
aI51
aI62
aI51
aI51
aI51
aI64
aI51
aI50
aI51
aI50
aI51
aI51
aI51
aI51
aI51
aI51
aI64
aI51
aI51
aI51
aI69
aI51
aI71
aI51
aI49
aI50
aI71
aI50
aI51
aI49
aI49
aI49
aI49
aI49
aI49
aI49
aI49
aI49
aI49
aI49
aI49
aI49
aI49
aI49
aI49
aI49
aI49
aI49
aI49
aI49
aI49
aI124
aI49
aI49
aI49
aI49
aI49
aI49
aI49
aI50
aI49
aI49
aI49
aI49
aI49
aI62
aI49
aI49
aI49
aI49
aI49
aI49
aI49
aI49
aI49
aI69
aI48
aI49
aI48
aI49
aI49
aI49
aI49
aI49
aI50
aI50
aI77
aI49
aI49
aI49
aI124
aI49
aI49
aI51
aI51
aI51
aI50
aI51
aI51
aI51
aI51
aI51
aI62
aI51
aI49
aI66
aI51
aI51
aI51
aI51
aI51
aI124
aI49
aI51
aI51
aI51
aI51
aI51
aI51
aI124
aI62
aI51
aI51
aI51
aI51
aI51
aI51
aI52
aI51
aI132
aI49
aI51
aI51
aI51
aI51
aI51
aI51
aI51
aI51
aI51
aI51
aI51
aI73
aI49
aI51
aI51
aI86
aI68
aI51
aI51
aI51
aI71
aI51
aI51
aI51
aI51
aI51
aI51
aI51
aI128
aI49
aI47
aI51
aI51
aI51
aI51
aI51
aI51
aI51
aI50
aI48
aI62
aI51
aI51
aI51
aI51
aI51
aI51
aI51
aI51
aI73
aI51
aI51
aI51
aI51
aI51
aI51
aI51
aI51
aI51
aI51
aI51
aI51
aI51
aI70
aI86
aI51
aI51
aI51
aI51
aI51
aI51
aI77
aI51
aI51
aI51
aI51
aI51
aI51
aI51
aI51
aI85
aI51
aI49
aI49
aI49
aI51
aI51
aI51
aI51
aI51
aI60
aI51
aI51
aI43
aI51
aI49
aI49
aI51
aI51
aI51
aI51
aI51
aI51
aI51
aI51
aI51
aI51
aI51
aI51
aI51
aI51
aI51
aI51
aI51
aI51
aI51
aI51
aI51
aI51
aI64
aI51
aI51
aI51
aI50
aI51
aI51
aI51
aI51
aI51
aI51
aI51
aI51
aI51
aI51
aI51
aI51
aI51
aI106
aI51
aI51
aI51
aI51
aI51
aI66
aI51
aI51
aI51
aI51
aI51
aI51
aI51
aI51
aI51
aI51
aI51
aI50
aI51
aI50
aI51
aI51
aI64
aI51
aI51
aI51
aI51
aI51
aI51
aI51
aI51
aI51
aI48
aI77
aI51
aI51
aI51
aI51
aI51
aI51
aI50
aI43
aI49
aI51
aI51
aI51
aI51
aI48
aI66
aI51
aI51
aI51
aI51
aI51
aI51
aI50
aI51
aI53
aI51
aI51
aI51
aI51
aI51
aI51
aI51
aI51
aI51
aI51
aI51
aI51
aI51
aI85
aI51
aI51
aI51
aI51
aI51
aI51
aI51
aI51
aI50
aI51
aI51
aI51
aI43
aI51
aI51
aI51
aI69
aI51
aI51
aI51
aI49
aI51
aI48
aI51
aI51
aI51
aI51
aI51
aI51
aI51
aI51
aI48
aI51
aI51
aI51
aI51
aI51
aI51
aI50
aI51
aI55
aI51
aI51
aI51
aI51
aI51
aI51
aI48
aI49
aI66
aI51
aI51
aI51
aI147
aI86
aI51
aI51
aI51
aI50
aI51
aI49
aI51
aI51
aI50
aI51
aI51
aI51
aI51
aI51
aI51
aI51
aI51
aI51
aI50
aI51
aI48
aI51
aI51
aI51
aI51
aI51
aI50
aI49
aI51
aI51
aI46
aI51
aI198
aI128
aI51
aI51
aI48
aI51
aI51
aI51
aI66
aI51
aI49
aI51
aI73
aI51
aI51
aI51
aI51
aI51
aI51
aI51
aI51
aI51
aI51
aI51
aI51
aI49
aI50
aI51
aI51
aI51
aI51
aI51
aI51
aI48
aI51
aI51
aI51
aI51
aI51
aI51
aI50
aI51
aI51
aI51
aI51
aI149
aI50
aI51
aI51
aI51
aI51
aI49
aI49
aI51
aI51
aI49
aI49
aI51
aI51
aI47
aI51
aI51
aI51
aI60
aI51
aI51
aI51
aI51
aI51
aI51
aI149
aI51
aI51
aI51
aI51
aI51
aI49
aI48
aI51
aI51
aI51
aI51
aI51
aI51
aI51
aI51
aI66
aI51
aI73
aI51
aI51
aI51
aI51
aI51
aI51
aI51
aI53
aI51
aI51
aI51
aI66
aI48
aI51
aI51
aI51
aI51
aI51
aI51
aI51
aI48
aI47
aI48
aI51
aI48
aI51
aI51
aI51
aI48
aI51
aI51
aI51
aI51
aI51
aI47
aI49
aI51
aI51
aI51
aI62
aI51
aI64
aI132
aI51
aI51
aI51
aI51
aI51
aI51
aI64
aI51
aI51
aI60
aI51
aI66
aI51
aI147
aI51
aI48
aI51
aI51
aI51
aI55
aI51
aI51
aI51
aI51
aI51
aI51
aI50
aI51
aI51
aI51
aI51
aI52
aI51
aI147
aI51
aI64
aI120
aI85
aI51
aI51
aI51
aI51
aI51
aI52
aI149
aI51
aI51
aI51
aI51
aI51
aI51
aI51
aI48
aI51
aI51
aI47
aI51
aI51
aI51
aI51
aI46
aI51
aI51
aI52
aI51
aI51
aI51
aI51
aI51
aI53
aI51
aI51
aI51
aI51
aI51
aI51
aI112
aI51
aI51
aI51
aI50
aI60
aI51
aI48
aI48
aI59
aI51
aI51
aI48
aI51
aI51
aI51
aI51
aI51
aI51
aI51
aI51
aI51
aI51
aI51
aI51
aI51
aI51
aI46
aI51
aI51
aI51
aI60
aI51
aI51
aI51
aI48
aI64
aI51
aI51
aI51
aI51
aI51
aI51
aI51
aI66
aI51
aI51
aI50
aI51
aI51
aI51
aI51
aI47
aI51
aI86
aI51
aI51
aI51
aI55
aI50
aI63
aI46
aI51
aI51
aI51
aI49
aI51
aI51
aI51
aI48
aI64
aI51
aI51
aI51
aI51
aI46
aI51
aI51
aI51
aI48
aI48
aI50
aI51
aI73
aI48
aI51
aI51
aI52
aI49
aI51
aI51
aI46
aI51
aI51
aI51
aI51
aI51
aI51
aI51
aI49
aI51
aI51
aI51
aI51
aI154
aI51
aI51
aI51
aI51
aI51
aI51
aI51
aI49
aI51
aI51
aI51
aI51
aI51
aI51
aI47
aI51
aI47
aI51
aI51
aI47
aI51
aI120
aI45
aI51
aI51
aI51
aI51
aI50
aI51
aI51
aI51
aI51
aI51
aI46
aI85
aI51
aI116
aI51
aI45
aI51
aI51
aI47
aI112
aI66
aI51
aI51
aI51
aI51
aI51
aI51
aI51
aI51
aI49
aI51
aI51
aI51
aI51
aI51
aI51
aI51
aI51
aI51
aI269
aI51
aI162
aI51
aI51
aI51
aI51
aI51
aI51
aI51
aI51
aI46
aI51
aI51
aI51
aI51
aI47
aI51
aI64
aI51
aI51
aI51
aI51
aI47
aI51
aI51
aI51
aI51
aI50
aI51
aI60
aI49
aI51
aI51
aI51
aI47
aI51
aI47
aI51
aI51
aI51
aI51
aI51
aI48
aI46
aI51
aI51
aI51
aI51
aI47
aI51
aI51
aI46
aI51
aI51
aI51
aI51
aI51
aI51
aI51
aI73
aI45
aI51
aI45
aI51
aI51
aI51
aI51
aI51
aI51
aI51
aI50
aI51
aI51
aI52
aI51
aI51
aI51
aI47
aI51
aI48
aI51
aI51
aI51
aI51
aI51
aI52
aI51
aI51
aI51
aI51
aI49
aI64
aI51
aI64
aI66
aI51
aI49
aI51
aI51
aI47
aI49
aI51
aI51
aI51
aI51
aI51
aI51
aI47
aI51
aI51
aI133
aI116
aI49
aI64
aI47
aI51
aI200
aI51
aI51
aI51
aI51
aI51
aI51
aI51
aI51
aI51
aI47
aI51
aI51
aI51
aI48
aI51
aI51
aI51
aI51
aI51
aI51
aI51
aI51
aI51
aI48
aI47
aI51
aI51
aI51
aI51
aI51
aI51
aI51
aI46
aI116
aI51
aI51
aI51
aI51
aI51
aI51
aI46
aI51
aI51
aI51
aI51
aI51
aI51
aI51
aI51
aI47
aI51
aI132
aI51
aI47
aI51
aI51
aI51
aI51
aI45
aI51
aI51
aI47
aI51
aI51
aI51
aI51
aI52
aI51
aI51
aI60
aI50
aI73
aI46
aI204
aI51
aI47
aI51
aI50
aI85
aI64
aI51
aI51
aI51
aI51
aI50
aI51
aI51
aI51
aI51
aI51
aI51
aI51
aI51
aI51
aI51
aI51
aI51
aI51
aI51
aI51
aI51
aI51
aI51
aI51
aI51
aI51
aI51
aI51
aI51
aI51
aI51
aI51
aI47
aI51
aI51
aI51
aI51
aI50
aI51
aI51
aI51
aI51
aI51
aI51
aI51
aI47
aI51
aI50
aI45
aI52
aI51
aI51
aI51
aI51
aI51
aI66
aI51
aI51
aI51
aI49
aI51
aI51
aI64
aI51
aI46
aI47
aI52
aI51
aI48
aI51
aI51
aI51
aI51
aI51
aI51
aI51
aI51
aI51
aI51
aI51
aI45
aI47
aI51
aI51
aI85
aI51
aI51
aI51
aI901
aI51
aI51
aI51
aI45
aI53
aI51
aI51
aI64
aI174
aI901
aI49
aI47
aI51
aI51
aI51
aI51
aI51
aI48
aI47
aI51
aI51
aI47
aI51
aI51
aI51
aI52
aI50
aI51
aI51
aI46
aI51
aI104
aI64
aI640
aI51
aI47
aI901
aI51
aI51
aI51
aI51
aI51
aI51
aI51
aI51
aI117
aI51
aI51
aI51
aI51
aI51
aI49
aI47
aI51
aI51
aI51
aI50
aI51
aI83
aI51
aI51
aI48
aI51
aI64
aI51
aI105
aI136
aI105
aI105
aI105
aI62
aI105
aI105
aI105
aI66
aI47
aI105
aI49
aI105
aI105
aI49
aI105
aI105
aI107
aI86
aI105
aI105
aI105
aI136
aI105
aI105
aI86
aI52
aI106
aI106
aI50
aI62
aI106
aI106
aI106
aI106
aI106
aI106
aI106
aI106
aI106
aI106
aI106
aI86
aI191
aI43
aI85
aI85
aI85
aI85
aI83
aI83
aI49
aI47
aI81
aI52
aI47
aI84
aI85
aI318
aI85
aI85
aI85
aI85
aI901
aI82
aI81
aI82
aI50
aI79
aI82
aI82
aI82
aI82
aI82
aI255
aI82
aI82
aI82
aI82
aI82
aI49
aI82
aI82
aI85
aI50
aI85
aI82
aI80
aI82
aI82
aI82
aI82
aI82
aI82
aI534
aI82
aI82
aI82
aI82
aI62
aI82
aI60
aI46
aI83
aI82
aI82
aI901
aI50
aI82
aI149
aI82
aI82
aI52
aI82
aI83
aI82
aI82
aI82
aI149
aI82
aI82
aI79
aI62
aI66
aI82
aI82
aI82
aI82
aI270
aI82
aI82
aI82
aI104
aI82
aI82
aI82
aI82
aI82
aI82
aI82
aI82
aI82
aI82
aI82
aI82
aI48
aI82
aI82
aI82
aI83
aI82
aI82
aI183
aI82
aI82
aI305
aI82
aI82
aI82
aI82
aI60
aI49
aI82
aI82
aI223
aI115
aI82
aI133
aI82
aI82
aI82
aI82
aI82
aI744
aI82
aI82
aI82
aI82
aI77
aI82
aI82
aI83
aI82
aI82
aI82
aI75
aI82
aI82
aI82
aI82
aI67
aI82
aI82
aI82
aI82
aI82
aI82
aI82
aI82
aI82
aI47
aI82
aI81
aI82
aI82
aI75
aI82
aI82
aI901
aI82
aI82
aI82
aI41
aI82
aI82
aI82
aI51
aI82
aI77
aI82
aI82
aI82
aI82
aI82
aI82
aI82
aI90
aI82
aI82
aI82
aI82
aI82
aI82
aI507
aI82
aI91
aI50
aI81
aI82
aI82
aI82
aI290
aI67
aI83
aI82
aI83
aI82
aI82
aI82
aI82
aI157
aI52
aI79
aI80
aI82
aI82
aI82
aI82
aI82
aI82
aI82
aI82
aI82
aI62
aI82
aI82
aI136
aI82
aI82
aI82
aI82
aI82
aI82
aI82
aI82
aI77
aI49
aI82
aI116
aI82
aI82
aI73
aI82
aI82
aI82
aI82
aI82
aI135
aI82
aI82
aI66
aI82
aI82
aI77
aI82
aI147
aI82
aI82
aI82
aI81
aI82
aI82
aI82
aI136
aI82
aI82
aI82
aI50
aI65
aI82
aI82
aI82
aI82
aI62
aI82
aI82
aI82
aI82
aI73
aI82
aI82
aI82
aI82
aI82
aI82
aI82
aI82
aI82
aI82
aI82
aI82
aI82
aI82
aI82
aI82
aI93
aI59
aI66
aI82
aI158
aI82
aI82
aI82
aI82
aI82
aI80
aI82
aI65
aI82
aI82
aI82
aI82
aI82
aI82
aI42
aI82
aI82
aI82
aI82
aI82
aI82
aI82
aI87
aI82
aI82
aI82
aI82
aI64
aI82
aI82
aI82
aI82
aI82
aI82
aI49
aI82
aI82
aI82
aI82
aI82
aI75
aI82
aI82
aI82
aI82
aI82
aI82
aI82
aI82
aI82
aI82
aI82
aI82
aI82
aI82
aI82
aI82
aI82
aI82
aI126
aI90
aI87
aI77
aI82
aI82
aI82
aI82
aI82
aI82
aI81
aI67
aI82
aI82
aI82
aI82
aI82
aI82
aI82
aI82
aI82
aI82
aI79
aI82
aI82
aI65
aI82
aI70
aI136
aI82
aI82
aI82
aI82
aI82
aI82
aI82
aI66
aI82
aI82
aI82
aI82
aI82
aI82
aI82
aI82
aI82
aI175
aI83
aI82
aI82
aI169
aI82
aI82
aI82
aI82
aI47
aI82
aI82
aI82
aI82
aI82
aI82
aI52
aI82
aI71
aI82
aI82
aI82
aI82
aI82
aI169
aI82
aI82
aI82
aI82
aI49
aI82
aI151
aI79
aI82
aI82
aI157
aI165
aI82
aI82
aI82
aI82
aI83
aI82
aI83
aI70
aI169
aI82
aI82
aI48
aI82
aI82
aI82
aI158
aI82
aI82
aI82
aI80
aI82
aI82
aI65
aI82
aI82
aI82
aI82
aI82
aI82
aI82
aI82
aI43
aI82
aI82
aI109
aI82
aI82
aI82
aI64
aI82
aI82
aI67
aI82
aI82
aI82
aI49
aI82
aI49
aI82
aI82
aI82
aI82
aI82
aI82
aI83
aI82
aI82
aI82
aI83
aI66
aI82
aI82
aI82
aI70
aI135
aI70
aI82
aI82
aI82
aI82
aI82
aI82
aI82
aI82
aI82
aI113
aI82
aI82
aI71
aI82
aI82
aI59
aI82
aI82
aI82
aI80
aI43
aI82
aI82
aI82
aI82
aI82
aI82
aI82
aI82
aI82
aI82
aI82
aI82
aI82
aI82
aI82
aI82
aI82
aI82
aI82
aI82
aI82
aI113
aI82
aI82
aI82
aI82
aI82
aI82
aI66
aI67
aI49
aI82
aI48
aI82
aI126
aI82
aI82
aI66
aI82
aI74
aI82
aI82
aI83
aI82
aI82
aI82
aI49
aI82
aI82
aI82
aI82
aI82
aI82
aI82
aI82
aI82
aI82
aI82
aI59
aI82
aI82
aI82
aI109
aI82
aI82
aI82
aI82
aI82
aI82
aI82
aI59
aI82
aI82
aI82
aI94
aI85
aI82
aI87
aI82
aI48
aI82
aI82
aI82
aI82
aI82
aI82
aI47
aI61
aI82
aI82
aI82
aI71
aI74
aI82
aI82
aI77
aI82
aI82
aI82
aI82
aI49
aI67
aI82
aI82
aI82
aI82
aI82
aI82
aI82
aI50
aI71
aI60
aI82
aI82
aI89
aI82
aI82
aI82
aI48
aI82
aI81
aI82
aI60
aI82
aI80
aI82
aI82
aI82
aI86
aI134
aI82
aI82
aI82
aI83
aI89
aI82
aI82
aI82
aI82
aI82
aI82
aI82
aI82
aI47
aI82
aI82
aI59
aI82
aI82
aI82
aI82
aI50
aI82
aI82
aI134
aI82
aI83
aI82
aI82
aI82
aI82
aI82
aI82
aI82
aI66
aI83
aI82
aI82
aI77
aI42
aI82
aI82
aI64
aI82
aI82
aI82
aI82
aI82
aI82
aI82
aI82
aI81
aI82
aI82
aI68
aI82
aI61
aI82
aI82
aI85
aI82
aI52
aI82
aI77
aI49
aI82
aI82
aI82
aI82
aI84
aI82
aI82
aI82
aI82
aI82
aI101
aI82
aI71
aI82
aI82
aI82
aI43
aI81
aI82
aI82
aI82
aI82
aI82
aI82
aI114
aI81
aI82
aI71
aI82
aI82
aI82
aI82
aI82
aI67
aI82
aI50
aI82
aI82
aI82
aI82
aI90
aI82
aI77
aI89
aI82
aI80
aI86
aI82
aI90
aI52
aI82
aI82
aI82
aI82
aI82
aI80
aI82
aI82
aI82
aI82
aI82
aI82
aI82
aI82
aI49
aI82
aI82
aI82
aI82
aI83
aI61
aI82
aI109
aI82
aI82
aI132
aI82
aI65
aI61
aI67
aI76
aI82
aI82
aI82
aI82
aI82
aI82
aI82
aI82
aI82
aI64
aI134
aI82
aI82
aI82
aI77
aI82
aI82
aI82
aI52
aI82
aI79
aI82
aI49
aI82
aI82
aI82
aI82
aI82
aI82
aI83
aI82
aI70
aI82
aI82
aI82
aI82
aI82
aI82
aI82
aI82
aI82
aI90
aI82
aI91
aI82
aI82
aI83
aI82
aI82
aI82
aI82
aI82
aI82
aI82
aI52
aI82
aI83
aI82
aI82
aI82
aI82
aI82
aI82
aI82
aI66
aI82
aI82
aI82
aI82
aI49
aI67
aI82
aI65
aI83
aI82
aI82
aI82
aI153
aI82
aI80
aI82
aI82
aI82
aI82
aI82
aI82
aI82
aI134
aI82
aI89
aI82
aI130
aI82
aI82
aI82
aI82
aI82
aI82
aI82
aI59
aI82
aI82
aI82
aI80
aI113
aI74
aI82
aI82
aI82
aI82
aI84
aI82
aI82
aI82
aI82
aI84
aI82
aI82
aI82
aI172
aI83
aI60
aI70
aI82
aI82
aI82
aI82
aI82
aI77
aI87
aI82
aI82
aI110
aI85
aI82
aI82
aI82
aI65
aI82
aI82
aI82
aI82
aI82
aI82
aI82
aI82
aI82
aI82
aI82
aI82
aI82
aI82
aI82
aI85
aI82
aI82
aI82
aI70
aI109
aI82
aI82
aI82
aI82
aI82
aI101
aI85
aI83
aI82
aI82
aI82
aI82
aI82
aI82
aI82
aI109
aI113
aI82
aI82
aI82
aI82
aI82
aI82
aI82
aI82
aI82
aI82
aI82
aI79
aI82
aI83
aI82
aI82
aI118
aI82
aI85
aI82
aI82
aI82
aI82
aI82
aI82
aI82
aI80
aI82
aI85
aI150
aI82
aI82
aI82
aI81
aI82
aI81
aI82
aI82
aI82
aI82
aI82
aI59
aI126
aI82
aI82
aI82
aI82
aI81
aI82
aI51
aI82
aI82
aI82
aI82
aI49
aI150
aI82
aI84
aI80
aI49
aI85
aI82
aI82
aI82
aI82
aI82
aI82
aI82
aI82
aI82
aI82
aI82
aI75
aI80
aI82
aI82
aI82
aI82
aI82
aI82
aI91
aI74
aI82
aI83
aI82
aI82
aI82
aI82
aI82
aI83
aI82
aI82
aI82
aI82
aI82
aI82
aI82
aI75
aI82
aI82
aI86
aI79
aI77
aI49
aI82
aI48
aI82
aI82
aI82
aI82
aI70
aI82
aI82
aI64
aI41
aI82
aI82
aI82
aI82
aI82
aI82
aI82
aI82
aI82
aI74
aI82
aI82
aI82
aI82
aI61
aI48
aI82
aI82
aI82
aI82
aI82
aI82
aI82
aI83
aI50
aI109
aI82
aI86
aI82
aI82
aI82
aI82
aI82
aI82
aI82
aI82
aI70
aI82
aI82
aI82
aI82
aI89
aI82
aI60
aI82
aI82
aI79
aI82
aI82
aI82
aI150
aI82
aI82
aI77
aI82
aI82
aI82
aI82
aI82
aI118
aI84
aI87
aI82
aI82
aI82
aI61
aI109
aI82
aI82
aI82
aI82
aI82
aI82
aI82
aI82
aI82
aI82
aI82
aI82
aI82
aI82
aI82
aI82
aI82
aI82
aI82
aI82
aI82
aI82
aI70
aI82
aI70
aI82
aI82
aI82
aI82
aI82
aI82
aI85
aI52
aI82
aI86
aI65
aI81
aI86
aI82
aI82
aI82
aI82
aI79
aI82
aI82
aI82
aI74
aI82
aI62
aI82
aI82
aI82
aI82
aI82
aI82
aI82
aI82
aI82
aI82
aI82
aI82
aI49
aI82
aI82
aI85
aI82
aI82
aI82
aI82
aI82
aI82
aI48
aI77
aI109
aI82
aI82
aI82
aI89
aI82
aI82
aI82
aI82
aI82
aI153
aI82
aI82
aI109
aI82
aI82
aI82
aI82
aI82
aI82
aI82
aI84
aI65
aI82
aI67
aI82
aI82
aI82
aI82
aI82
aI82
aI82
aI82
aI74
aI82
aI82
aI82
aI59
aI82
aI82
aI59
aI82
aI82
aI82
aI79
aI95
aI94
aI82
aI82
aI79
aI62
aI50
aI82
aI85
aI82
aI82
aI82
aI82
aI82
aI82
aI82
aI82
aI82
aI82
aI82
aI82
aI82
aI82
aI84
aI84
aI82
aI82
aI82
aI82
aI82
aI82
aI82
aI82
aI100
aI82
aI82
aI82
aI82
aI82
aI79
aI83
aI82
aI82
aI82
aI82
aI82
aI82
aI48
aI82
aI82
aI82
aI82
aI82
aI82
aI82
aI82
aI82
aI82
aI82
aI82
aI82
aI82
aI82
aI82
aI77
aI82
aI82
aI82
aI82
aI82
aI82
aI66
aI82
aI82
aI82
aI82
aI49
aI82
aI82
aI154
aI60
aI118
aI82
aI82
aI82
aI71
aI82
aI82
aI82
aI82
aI82
aI50
aI82
aI53
aI70
aI82
aI82
aI83
aI82
aI82
aI82
aI84
aI82
aI82
aI82
aI75
aI82
aI82
aI82
aI117
aI82
aI82
aI82
aI82
aI82
aI82
aI84
aI84
aI82
aI82
aI82
aI75
aI82
aI82
aI65
aI82
aI82
aI82
aI82
aI75
aI82
aI82
aI82
aI82
aI82
aI82
aI82
aI82
aI66
aI123
aI82
aI82
aI82
aI82
aI82
aI82
aI51
aI84
aI82
aI64
aI82
aI82
aI86
aI82
aI82
aI82
aI82
aI82
aI82
aI82
aI83
aI82
aI82
aI82
aI82
aI60
aI82
aI59
aI82
aI82
aI82
aI82
aI82
aI65
aI82
aI64
aI82
aI82
aI82
aI82
aI75
aI82
aI82
aI82
aI153
aI82
aI82
aI82
aI82
aI82
aI82
aI82
aI82
aI82
aI82
aI82
aI65
aI82
aI82
aI82
aI82
aI80
aI82
aI82
aI71
aI70
aI82
aI82
aI82
aI82
aI82
aI82
aI81
aI82
aI70
aI80
aI82
aI87
aI82
aI82
aI48
aI83
aI85
aI82
aI82
aI82
aI82
aI82
aI82
aI82
aI82
aI82
aI82
aI50
aI82
aI48
aI82
aI82
aI82
aI82
aI82
aI79
aI49
aI83
aI82
aI82
aI82
aI82
aI82
aI82
aI82
aI82
aI82
aI82
aI82
aI85
aI82
aI82
aI82
aI82
aI82
aI82
aI82
aI60
aI65
aI48
aI82
aI82
aI82
aI49
aI100
aI82
aI82
aI82
aI94
aI59
aI100
aI79
aI82
aI82
aI95
aI79
aI82
aI82
aI82
aI82
aI82
aI82
aI82
aI82
aI82
aI82
aI82
aI150
aI82
aI82
aI90
aI82
aI54
aI82
aI82
aI82
aI82
aI109
aI82
aI82
aI82
aI82
aI77
aI49
aI82
aI69
aI64
aI82
aI82
aI82
aI82
aI82
aI82
aI82
aI82
aI82
aI82
aI47
aI70
aI82
aI82
aI82
aI82
aI82
aI85
aI82
aI82
aI82
aI82
aI82
aI82
aI48
aI82
aI82
aI82
aI82
aI82
aI82
aI66
aI82
aI82
aI82
aI82
aI70
aI82
aI75
aI82
aI59
aI66
aI82
aI83
aI82
aI82
aI82
aI50
aI82
aI82
aI82
aI82
aI85
aI82
aI82
aI77
aI82
aI50
aI153
aI82
aI82
aI101
aI82
aI81
aI82
aI82
aI82
aI82
aI82
aI82
aI82
aI82
aI82
aI82
aI82
aI82
aI82
aI82
aI82
aI70
aI47
aI82
aI82
aI82
aI82
aI65
aI47
aI82
aI82
aI82
aI82
aI82
aI82
aI82
aI82
aI82
aI82
aI90
aI82
aI82
aI82
aI83
aI77
aI65
aI82
aI82
aI82
aI82
aI77
aI74
aI50
aI82
aI62
aI84
aI82
aI82
aI49
aI83
aI83
aI82
aI82
aI82
aI82
aI60
aI82
aI74
aI82
aI75
aI82
aI82
aI82
aI60
aI82
aI82
aI82
aI82
aI82
aI55
aI82
aI82
aI82
aI48
aI82
aI82
aI49
aI82
aI82
aI82
aI80
aI82
aI82
aI82
aI82
aI82
aI82
aI82
aI82
aI82
aI82
aI77
aI82
aI82
aI82
aI85
aI82
aI59
aI82
aI52
aI66
aI82
aI82
aI80
aI82
aI105
aI49
aI82
aI83
aI79
aI84
aI82
aI82
aI102
aI82
aI82
aI81
aI82
aI77
aI82
aI82
aI123
aI82
aI82
aI82
aI85
aI82
aI82
aI82
aI153
aI82
aI82
aI79
aI49
aI82
aI82
aI82
aI82
aI80
aI82
aI80
aI82
aI82
aI82
aI82
aI82
aI153
aI82
aI82
aI70
aI82
aI82
aI82
aI82
aI82
aI82
aI82
aI82
aI55
aI82
aI82
aI82
aI82
aI82
aI82
aI82
aI82
aI82
aI82
aI70
aI82
aI153
aI102
aI82
aI82
aI82
aI80
aI62
aI65
aI82
aI82
aI65
aI82
aI82
aI100
aI82
aI82
aI82
aI82
aI52
aI82
aI82
aI82
aI82
aI57
aI82
aI82
aI82
aI82
aI82
aI49
aI82
aI102
aI153
aI82
aI82
aI82
aI82
aI82
aI82
aI64
aI82
aI64
aI80
aI82
aI47
aI47
aI83
aI82
aI82
aI82
aI82
aI82
aI64
aI84
aI48
aI62
aI82
aI82
aI82
aI82
aI73
aI82
aI82
aI82
aI82
aI82
aI82
aI52
aI77
aI82
aI82
aI75
aI82
aI82
aI82
aI82
aI82
aI82
aI82
aI66
aI82
aI82
aI49
aI82
aI82
aI75
aI82
aI82
aI82
aI82
aI75
aI82
aI82
aI82
aI79
aI85
aI74
aI82
aI82
aI82
aI82
aI82
aI82
aI83
aI82
aI82
aI47
aI82
aI82
aI82
aI62
aI49
aI82
aI82
aI82
aI82
aI82
aI82
aI82
aI82
aI82
aI82
aI75
aI82
aI82
aI82
aI82
aI82
aI82
aI82
aI75
aI82
aI82
aI82
aI82
aI82
aI82
aI82
aI82
aI82
aI82
aI82
aI66
aI82
aI82
aI82
aI82
aI82
aI82
aI82
aI82
aI82
aI82
aI82
aI82
aI82
aI58
aI82
aI82
aI82
aI82
aI82
aI82
aI82
aI77
aI82
aI82
aI82
aI79
aI82
aI82
aI82
aI82
aI82
aI82
aI82
aI70
aI82
aI82
aI82
aI82
aI82
aI82
aI82
aI82
aI82
aI82
aI82
aI97
aI82
aI82
aI82
aI82
aI82
aI82
aI82
aI83
aI82
aI82
aI65
aI82
aI82
aI82
aI82
aI82
aI54
aI82
aI82
aI82
aI82
aI82
aI52
aI82
aI82
aI82
aI82
aI62
aI82
aI83
aI82
aI82
aI82
aI82
aI82
aI53
aI82
aI82
aI83
aI82
aI82
aI82
aI83
aI82
aI82
aI82
aI82
aI62
aI82
aI65
aI82
aI82
aI82
aI82
aI82
aI82
aI82
aI85
aI82
aI82
aI50
aI80
aI82
aI82
aI82
aI63
aI79
aI49
aI82
aI82
aI80
aI52
aI82
aI82
aI82
aI81
aI66
aI119
aI82
aI82
aI82
aI82
aI82
aI150
aI82
aI52
aI74
aI117
aI82
aI82
aI54
aI82
aI82
aI82
aI77
aI82
aI82
aI82
aI118
aI153
aI50
aI82
aI82
aI66
aI82
aI48
aI82
aI82
aI82
aI82
aI82
aI82
aI82
aI82
aI50
aI82
aI82
aI79
aI66
aI82
aI82
aI82
aI102
aI77
aI82
aI82
aI82
aI82
aI82
aI82
aI82
aI82
aI82
aI82
aI82
aI82
aI82
aI82
aI82
aI82
aI82
aI82
aI82
aI82
aI82
aI118
aI82
aI82
aI82
aI82
aI82
aI82
aI82
aI79
aI82
aI47
aI82
aI47
aI79
aI82
aI84
aI82
aI82
aI82
aI82
aI82
aI150
aI82
aI48
aI48
aI83
aI82
aI82
aI82
aI82
aI82
aI82
aI82
aI82
aI82
aI82
aI82
aI82
aI82
aI65
aI82
aI82
aI100
aI86
aI82
aI82
aI102
aI82
aI50
aI82
aI82
aI52
aI82
aI48
aI52
aI82
aI82
aI82
aI77
aI82
aI82
aI82
aI83
aI82
aI82
aI82
aI82
aI82
aI82
aI70
aI82
aI82
aI114
aI48
aI84
aI82
aI82
aI82
aI82
aI82
aI82
aI48
aI82
aI82
aI82
aI79
aI82
aI82
aI82
aI83
aI48
aI82
aI82
aI82
aI82
aI82
aI82
aI80
aI52
aI82
aI82
aI82
aI82
aI51
aI82
aI102
aI82
aI50
aI82
aI54
aI82
aI82
aI82
aI82
aI80
aI82
aI49
aI80
aI82
aI82
aI41
aI82
aI82
aI82
aI82
aI82
aI82
aI82
aI82
aI82
aI82
aI82
aI82
aI82
aI70
aI84
aI82
aI82
aI54
aI82
aI82
aI82
aI82
aI56
aI82
aI82
aI82
aI82
aI85
aI82
aI82
aI82
aI75
aI82
aI82
aI82
aI82
aI80
aI82
aI54
aI82
aI82
aI82
aI82
aI65
aI82
aI82
aI80
aI82
aI82
aI82
aI82
aI82
aI79
aI82
aI82
aI82
aI43
aI82
aI82
aI82
aI82
aI69
aI82
aI82
aI82
aI82
aI82
aI110
aI82
aI70
aI82
aI82
aI62
aI82
aI64
aI82
aI82
aI82
aI82
aI82
aI82
aI47
aI82
aI82
aI82
aI82
aI75
aI82
aI82
aI82
aI82
aI82
aI82
aI82
aI51
aI82
aI66
aI82
aI82
aI82
aI82
aI82
aI82
aI44
aI82
aI83
aI82
aI82
aI82
aI82
aI82
aI82
aI43
aI82
aI82
aI82
aI82
aI84
aI82
aI66
aI82
aI50
aI82
aI82
aI52
aI50
aI84
aI82
aI82
aI82
aI82
aI82
aI82
aI44
aI117
aI82
aI82
aI82
aI82
aI82
aI81
aI48
aI52
aI77
aI82
aI59
aI82
aI82
aI82
aI118
aI80
aI82
aI82
aI82
aI82
aI85
aI82
aI82
aI82
aI82
aI82
aI82
aI65
aI82
aI82
aI82
aI82
aI48
aI82
aI82
aI82
aI62
aI82
aI82
aI82
aI82
aI82
aI82
aI82
aI82
aI74
aI67
aI65
aI82
aI82
aI82
aI82
aI82
aI82
aI81
aI51
aI74
aI49
aI82
aI82
aI52
aI52
aI82
aI50
aI82
aI82
aI82
aI54
aI82
aI54
aI82
aI82
aI80
aI44
aI82
aI82
aI82
aI82
aI82
aI134
aI102
aI82
aI82
aI82
aI82
aI80
aI82
aI82
aI82
aI48
aI82
aI82
aI82
aI82
aI82
aI82
aI82
aI82
aI50
aI83
aI82
aI82
aI53
aI82
aI82
aI82
aI82
aI84
aI82
aI82
aI64
aI82
aI82
aI82
aI82
aI100
aI82
aI77
aI82
aI84
aI82
aI82
aI82
aI49
aI82
aI82
aI82
aI80
aI82
aI82
aI49
aI82
aI82
aI82
aI84
aI39
aI82
aI81
aI82
aI82
aI82
aI82
aI49
aI102
aI48
aI82
aI74
aI82
aI82
aI82
aI82
aI64
aI82
aI82
aI44
aI82
aI39
aI82
aI82
aI56
aI82
aI82
aI82
aI82
aI82
aI82
aI82
aI82
aI82
aI82
aI82
aI82
aI82
aI82
aI82
aI82
aI82
aI82
aI82
aI82
aI82
aI82
aI82
aI82
aI82
aI82
aI79
aI82
aI82
aI82
aI82
aI82
aI118
aI82
aI39
aI82
aI82
aI82
aI85
aI82
aI43
aI82
aI65
aI49
aI82
aI85
aI82
aI56
aI49
aI82
aI82
aI82
aI82
aI80
aI82
aI56
aI81
aI82
aI77
aI82
aI82
aI82
aI52
aI82
aI82
aI74
aI82
aI82
aI82
aI82
aI82
aI82
aI82
aI82
aI82
aI82
aI83
aI82
aI82
aI82
aI82
aI82
aI82
aI82
aI82
aI82
aI48
aI84
aI82
aI82
aI82
aI82
aI52
aI82
aI82
aI48
aI65
aI82
aI82
aI82
aI82
aI82
aI82
aI82
aI82
aI52
aI82
aI47
aI82
aI48
aI82
aI82
aI82
aI82
aI82
aI82
aI48
aI82
aI82
aI82
aI61
aI82
aI54
aI82
aI82
aI82
aI82
aI79
aI52
aI82
aI45
aI82
aI84
aI82
aI65
aI82
aI82
aI82
aI82
aI82
aI82
aI82
aI82
aI82
aI82
aI82
aI82
aI82
aI82
aI82
aI82
aI82
aI39
aI82
aI83
aI82
aI82
aI82
aI82
aI82
aI82
aI82
aI82
aI43
aI82
aI82
aI61
aI82
aI82
aI82
aI40
aI82
aI58
aI82
aI82
aI85
aI82
aI56
aI82
aI81
aI82
aI82
aI41
aI82
aI82
aI39
aI82
aI82
aI82
aI80
aI82
aI82
aI82
aI68
aI39
aI82
aI82
aI82
aI82
aI82
aI43
aI82
aI82
aI82
aI82
aI82
aI82
aI82
aI43
aI82
aI82
aI52
aI82
aI46
aI82
aI82
aI82
aI82
aI82
aI54
aI82
aI82
aI82
aI54
aI82
aI39
aI65
aI82
aI82
aI82
aI82
aI82
aI82
aI79
aI82
aI82
aI82
aI82
aI82
aI82
aI82
aI49
aI82
aI45
aI39
aI43
aI82
aI82
aI82
aI82
aI82
aI82
aI82
aI82
aI82
aI82
aI80
aI82
aI48
aI82
aI82
aI45
aI82
aI66
aI82
aI83
aI56
aI55
aI82
aI52
aI82
aI47
aI43
aI82
aI82
aI82
aI82
aI82
aI82
aI82
aI82
aI82
aI82
aI82
aI82
aI82
aI82
aI82
aI82
aI82
aI82
aI82
aI82
aI82
aI82
aI82
aI82
aI40
aI82
aI82
aI80
aI82
aI47
aI39
aI74
aI43
aI67
aI82
aI79
aI82
aI82
aI82
aI82
aI82
aI82
aI82
aI40
aI82
aI82
aI82
aI82
aI82
aI82
aI82
aI82
aI82
aI85
aI82
aI82
aI82
aI82
aI82
aI47
aI82
aI82
aI82
aI82
aI80
aI67
aI82
aI48
aI82
aI82
aI82
aI43
aI63
aI57
aI56
aI82
aI82
aI82
aI48
aI82
aI82
aI80
aI82
aI82
aI82
aI82
aI39
aI82
aI82
aI82
aI82
aI82
aI82
aI82
aI44
aI80
aI82
aI43
aI82
aI71
aI82
aI82
aI82
aI82
aI82
aI82
aI56
aI82
aI43
aI82
aI82
aI82
aI65
aI82
aI82
aI100
aI74
aI82
aI82
aI82
aI82
aI82
aI85
aI44
aI82
aI82
aI82
aI41
aI82
aI82
aI82
aI82
aI82
aI82
aI40
aI82
aI77
aI82
aI82
aI82
aI82
aI43
aI82
aI82
aI82
aI82
aI82
aI82
aI82
aI74
aI82
aI67
aI82
aI82
aI47
aI54
aI82
aI82
aI82
aI47
aI43
aI82
aI82
aI82
aI81
aI47
aI82
aI80
aI82
aI82
aI59
aI82
aI82
aI82
aI82
aI82
aI82
aI82
aI82
aI82
aI82
aI57
aI82
aI46
aI82
aI82
aI82
aI82
aI82
aI82
aI82
aI54
aI82
aI82
aI82
aI45
aI86
aI82
aI82
aI82
aI81
aI82
aI82
aI82
aI82
aI48
aI82
aI82
aI82
aI82
aI82
aI82
aI82
aI82
aI82
aI82
aI82
aI82
aI82
aI82
aI82
aI82
aI82
aI82
aI82
aI82
aI43
aI82
aI82
aI82
aI82
aI82
aI82
aI54
aI63
aI82
aI82
aI82
aI44
aI82
aI82
aI82
aI82
aI82
aI82
aI65
aI82
aI42
aI82
aI82
aI82
aI82
aI71
aI82
aI82
aI82
aI82
aI81
aI82
aI82
aI82
aI82
aI82
aI82
aI82
aI82
aI45
aI82
aI82
aI82
aI82
aI82
aI66
aI82
aI82
aI82
aI54
aI80
aI82
aI82
aI82
aI82
aI82
aI82
aI82
aI43
aI82
aI40
aI82
aI71
aI82
aI82
aI82
aI82
aI82
aI79
aI48
aI82
aI82
aI82
aI84
aI43
aI67
aI82
aI43
aI82
aI82
aI82
aI82
aI47
aI65
aI65
aI82
aI82
aI80
aI82
aI82
aI39
aI82
aI82
aI82
aI82
aI82
aI82
aI76
aI82
aI58
aI82
aI47
aI82
aI39
aI65
aI82
aI82
aI82
aI82
aI82
aI82
aI82
aI82
aI82
aI82
aI82
aI82
aI82
aI82
aI79
aI47
aI65
aI82
aI82
aI82
aI82
aI48
aI65
aI82
aI82
aI82
aI82
aI39
aI41
aI82
aI82
aI82
aI82
aI82
aI82
aI82
aI65
aI71
aI45
aI67
aI82
aI80
aI82
aI83
aI82
aI82
aI82
aI82
aI82
aI82
aI82
aI82
aI82
aI79
aI39
aI71
aI47
aI82
aI82
aI83
aI48
aI82
aI80
aI82
aI82
aI66
aI82
aI39
aI43
aI82
aI80
aI82
aI52
aI82
aI82
aI82
aI82
aI82
aI82
aI82
aI56
aI65
aI79
aI39
aI47
aI82
aI82
aI82
aI82
aI82
aI82
aI82
aI82
aI43
aI82
aI82
aI82
aI46
aI61
aI82
aI82
aI82
aI82
aI67
aI82
aI57
aI40
aI82
aI44
aI82
aI82
aI82
aI79
aI39
aI82
aI82
aI82
aI45
aI82
aI82
aI47
aI82
aI82
aI39
aI82
aI82
aI82
aI67
aI82
aI67
aI82
aI82
aI82
aI63
aI82
aI82
aI82
aI46
aI74
aI82
aI66
aI82
aI82
aI56
aI82
aI80
aI82
aI82
aI74
aI82
aI82
aI43
aI82
aI82
aI82
aI82
aI82
aI82
aI39
aI82
aI82
aI82
aI54
aI82
aI82
aI52
aI82
aI47
aI82
aI82
aI82
aI82
aI54
aI43
aI39
aI56
aI82
aI82
aI82
aI82
aI65
aI82
aI82
aI63
aI82
aI81
aI52
aI82
aI82
aI82
aI65
aI82
aI82
aI82
aI82
aI82
aI82
aI82
aI82
aI82
aI82
aI82
aI82
aI80
aI82
aI82
aI80
aI73
aI82
aI82
aI85
aI82
aI82
aI82
aI63
aI82
aI82
aI54
aI82
aI82
aI89
aI82
aI82
aI82
aI82
aI84
aI82
aI82
aI82
aI55
aI82
aI41
aI82
aI39
aI42
aI79
aI70
aI55
aI83
aI82
aI82
aI56
aI63
aI82
aI82
aI82
aI82
aI82
aI67
aI82
aI82
aI67
aI82
aI82
aI82
aI82
aI82
aI63
aI82
aI56
aI82
aI82
aI82
aI82
aI82
aI48
aI82
aI82
aI60
aI82
aI82
aI39
aI82
aI82
aI82
aI82
aI82
aI82
aI82
aI82
aI82
aI39
aI82
aI82
aI82
aI82
aI122
aI82
aI82
aI82
aI82
aI82
aI82
aI82
aI82
aI82
aI82
aI82
aI82
aI82
aI39
aI82
aI65
aI43
aI82
aI82
aI57
aI82
aI41
aI82
aI82
aI82
aI82
aI82
aI82
aI82
aI82
aI82
aI82
aI82
aI82
aI82
aI82
aI82
aI82
aI44
aI82
aI82
aI82
aI82
aI82
aI61
aI82
aI82
aI82
aI82
aI82
aI82
aI82
aI82
aI82
aI82
aI82
aI43
aI82
aI82
aI65
aI40
aI82
aI52
aI82
aI82
aI40
aI82
aI82
aI82
aI82
aI82
aI82
aI56
aI82
aI82
aI82
aI47
aI82
aI82
aI82
aI82
aI82
aI82
aI82
aI82
aI82
aI82
aI82
aI57
aI39
aI52
aI82
aI82
aI56
aI82
aI43
aI63
aI82
aI82
aI82
aI82
aI82
aI82
aI82
aI82
aI82
aI82
aI71
aI82
aI54
aI41
aI82
aI82
aI82
aI82
aI82
aI82
aI82
aI82
aI47
aI82
aI82
aI82
aI46
aI82
aI82
aI82
aI82
aI84
aI54
aI45
aI56
aI81
aI81
aI81
aI54
aI81
aI52
aI81
aI81
aI81
aI52
aI81
aI81
aI81
aI81
aI81
aI81
aI81
aI81
aI81
aI67
aI49
aI81
aI81
aI45
aI74
aI81
aI46
aI73
aI81
aI54
aI81
aI81
aI81
aI81
aI63
aI81
aI81
aI81
aI81
aI81
aI81
aI46
aI81
aI81
aI81
aI81
aI81
aI41
aI58
aI82
aI82
aI82
aI82
aI82
aI82
aI82
aI55
aI58
aI82
aI82
aI82
aI82
aI74
aI82
aI82
aI80
aI43
aI82
aI85
aI82
aI82
aI82
aI82
aI82
aI82
aI54
aI82
aI83
aI82
aI82
aI42
aI82
aI58
aI40
aI82
aI82
aI82
aI82
aI46
aI82
aI82
aI41
aI82
aI82
aI52
aI41
aI82
aI82
aI82
aI65
aI40
aI82
aI41
aI84
aI83
aI82
aI82
aI82
aI82
aI82
aI82
aI71
aI82
aI82
aI82
aI82
aI82
aI82
aI79
aI77
aI66
aI85
aI66
aI43
aI82
aI65
aI52
aI82
aI82
aI82
aI65
aI82
aI82
aI82
aI82
aI82
aI82
aI74
aI52
aI82
aI83
aI82
aI82
aI82
aI56
aI65
aI45
aI82
aI82
aI82
aI82
aI82
aI82
aI82
aI82
aI82
aI82
aI82
aI82
aI82
aI41
aI82
aI82
aI82
aI82
aI82
aI63
aI82
aI43
aI56
aI82
aI82
aI82
aI82
aI82
aI43
aI82
aI82
aI81
aI82
aI82
aI82
aI82
aI122
aI82
aI55
aI82
aI39
aI82
aI82
aI82
aI82
aI43
aI56
aI82
aI82
aI82
aI74
aI82
aI82
aI82
aI74
aI82
aI39
aI82
aI82
aI82
aI82
aI83
aI82
aI82
aI82
aI82
aI82
aI84
aI82
aI82
aI82
aI44
aI82
aI82
aI39
aI82
aI77
aI82
aI82
aI82
aI82
aI82
aI79
aI82
aI82
aI82
aI82
aI82
aI82
aI82
aI82
aI82
aI43
aI82
aI82
aI47
aI82
aI82
aI82
aI82
aI82
aI76
aI83
aI82
aI84
aI82
aI42
aI80
aI82
aI79
aI52
aI82
aI82
aI82
aI82
aI82
aI82
aI39
aI82
aI82
aI82
aI48
aI82
aI52
aI82
aI82
aI52
aI82
aI85
aI82
aI41
aI82
aI82
aI82
aI82
aI82
aI82
aI82
aI82
aI82
aI82
aI82
aI71
aI82
aI74
aI82
aI82
aI82
aI82
aI82
aI82
aI83
aI82
aI82
aI82
aI82
aI82
aI82
aI81
aI61
aI82
aI82
aI82
aI82
aI82
aI82
aI58
aI100
aI82
aI82
aI82
aI82
aI82
aI82
aI82
aI82
aI82
aI54
aI82
aI82
aI76
aI44
aI83
aI56
aI82
aI82
aI82
aI46
aI45
aI82
aI82
aI52
aI82
aI100
aI82
aI67
aI83
aI82
aI82
aI82
aI82
aI82
aI82
aI83
aI82
aI82
aI82
aI82
aI58
aI82
aI56
aI82
aI82
aI82
aI76
aI47
aI82
aI82
aI82
aI82
aI82
aI82
aI82
aI82
aI82
aI56
aI65
aI82
aI82
aI80
aI40
aI82
aI82
aI82
aI82
aI82
aI82
aI82
aI51
aI82
aI82
aI82
aI82
aI74
aI82
aI82
aI82
aI82
aI82
aI82
aI83
aI82
aI82
aI46
aI82
aI82
aI43
aI82
aI82
aI82
aI82
aI82
aI82
aI82
aI43
aI82
aI82
aI82
aI82
aI82
aI74
aI82
aI39
aI82
aI82
aI82
aI82
aI82
aI82
aI82
aI82
aI65
aI44
aI82
aI82
aI48
aI82
aI75
aI83
aI82
aI58
aI52
aI75
aI82
aI82
aI82
aI80
aI82
aI82
aI83
aI82
aI82
aI82
aI115
aI82
aI82
aI77
aI82
aI82
aI82
aI82
aI83
aI82
aI54
aI39
aI82
aI82
aI82
aI82
aI82
aI80
aI82
aI82
aI82
aI82
aI85
aI83
aI82
aI47
aI82
aI82
aI39
aI82
aI82
aI82
aI82
aI82
aI82
aI82
aI82
aI82
aI82
aI61
aI82
aI82
aI82
aI61
aI82
aI66
aI82
aI82
aI82
aI82
aI82
aI82
aI82
aI82
aI82
aI82
aI82
aI55
aI82
aI82
aI73
aI61
aI85
aI82
aI82
aI82
aI82
aI82
aI82
aI82
aI82
aI82
aI82
aI82
aI82
aI82
aI82
aI82
aI82
aI82
aI82
aI82
aI82
aI82
aI82
aI82
aI82
aI82
aI82
aI82
aI82
aI82
aI77
aI82
aI82
aI82
aI67
aI74
aI82
aI82
aI82
aI74
aI40
aI82
aI82
aI82
aI82
aI82
aI82
aI82
aI82
aI60
aI82
aI66
aI82
aI82
aI82
aI82
aI47
aI80
aI82
aI82
aI82
aI52
aI82
aI82
aI56
aI52
aI82
aI82
aI77
aI48
aI44
aI82
aI43
aI47
aI82
aI79
aI82
aI82
aI82
aI82
aI82
aI82
aI82
aI82
aI82
aI82
aI82
aI82
aI82
aI82
aI82
aI82
aI43
aI82
aI43
aI82
aI82
aI82
aI60
aI85
aI82
aI82
aI46
aI82
aI82
aI82
aI82
aI82
aI39
aI82
aI82
aI82
aI82
aI52
aI82
aI82
aI82
aI82
aI85
aI45
aI82
aI82
aI82
aI43
aI82
aI44
aI46
aI82
aI82
aI82
aI82
aI56
aI82
aI82
aI58
aI82
aI41
aI82
aI82
aI54
aI80
aI82
aI82
aI82
aI48
aI82
aI82
aI82
aI82
aI82
aI82
aI65
aI54
aI82
aI82
aI82
aI82
aI82
aI82
aI39
aI82
aI82
aI63
aI82
aI82
aI83
aI82
aI82
aI82
aI82
aI82
aI82
aI82
aI67
aI82
aI82
aI82
aI82
aI82
aI63
aI74
aI82
aI82
aI82
aI82
aI58
aI82
aI83
aI82
aI82
aI82
aI39
aI82
aI82
aI82
aI45
aI45
aI82
aI82
aI82
aI82
aI83
aI82
aI82
aI58
aI48
aI82
aI82
aI39
aI80
aI82
aI82
aI82
aI82
aI82
aI82
aI82
aI82
aI82
aI82
aI82
aI77
aI74
aI82
aI82
aI82
aI61
aI82
aI82
aI82
aI82
aI82
aI82
aI82
aI82
aI79
aI52
aI82
aI82
aI153
aI82
aI52
aI77
aI82
aI56
aI82
aI82
aI82
aI82
aI82
aI82
aI82
aI74
aI56
aI61
aI83
aI82
aI82
aI82
aI82
aI54
aI82
aI108
aI82
aI82
aI82
aI82
aI82
aI82
aI74
aI82
aI54
aI82
aI57
aI82
aI82
aI82
aI82
aI42
aI82
aI82
aI82
aI82
aI82
aI82
aI82
aI82
aI81
aI61
aI82
aI82
aI54
aI82
aI82
aI82
aI82
aI56
aI82
aI63
aI57
aI55
aI82
aI83
aI47
aI83
aI82
aI82
aI82
aI82
aI82
aI82
aI82
aI82
aI82
aI82
aI82
aI44
aI82
aI48
aI48
aI82
aI82
aI79
aI82
aI82
aI82
aI82
aI82
aI82
aI82
aI82
aI42
aI82
aI63
aI82
aI82
aI84
aI82
aI47
aI82
aI82
aI82
aI82
aI82
aI82
aI82
aI82
aI52
aI82
aI82
aI82
aI77
aI82
aI74
aI82
aI82
aI74
aI82
aI82
aI82
aI82
aI77
aI82
aI82
aI82
aI80
aI82
aI82
aI83
aI82
aI82
aI79
aI82
aI82
aI82
aI82
aI58
aI82
aI55
aI82
aI83
aI82
aI74
aI39
aI82
aI82
aI82
aI82
aI82
aI82
aI65
aI82
aI82
aI82
aI82
aI74
aI82
aI82
aI82
aI82
aI82
aI82
aI42
aI82
aI61
aI82
aI65
aI82
aI82
aI82
aI82
aI82
aI43
aI82
aI82
aI82
aI82
aI82
aI82
aI65
aI82
aI82
aI82
aI44
aI55
aI82
aI58
aI82
aI82
aI82
aI82
aI54
aI61
aI82
aI83
aI82
aI65
aI82
aI43
aI82
aI82
aI80
aI82
aI82
aI82
aI82
aI82
aI82
aI82
aI82
aI82
aI84
aI82
aI83
aI82
aI82
aI65
aI47
aI56
aI82
aI40
aI82
aI82
aI82
aI63
aI82
aI82
aI79
aI82
aI82
aI82
aI82
aI82
aI56
aI82
aI82
aI39
aI82
aI39
aI82
aI67
aI82
aI82
aI82
aI42
aI82
aI82
aI83
aI82
aI82
aI82
aI82
aI43
aI82
aI82
aI82
aI82
aI82
aI82
aI82
aI83
aI54
aI82
aI82
aI82
aI52
aI40
aI82
aI82
aI82
aI82
aI82
aI82
aI82
aI82
aI61
aI82
aI82
aI80
aI47
aI77
aI54
aI82
aI82
aI82
aI82
aI48
aI81
aI82
aI82
aI82
aI82
aI82
aI39
aI82
aI80
aI83
aI82
aI82
aI82
aI74
aI82
aI82
aI82
aI43
aI39
aI82
aI82
aI82
aI82
aI82
aI82
aI54
aI82
aI82
aI82
aI82
aI82
aI83
aI82
aI65
aI82
aI82
aI82
aI82
aI82
aI54
aI82
aI82
aI82
aI82
aI82
aI82
aI55
aI82
aI82
aI82
aI82
aI82
aI82
aI43
aI82
aI58
aI82
aI82
aI82
aI79
aI83
aI39
aI79
aI82
aI84
aI81
aI82
aI65
aI48
aI82
aI82
aI82
aI39
aI84
aI80
aI82
aI82
aI82
aI82
aI58
aI82
aI82
aI82
aI47
aI82
aI82
aI43
aI61
aI82
aI82
aI82
aI74
aI82
aI82
aI82
aI85
aI82
aI82
aI82
aI82
aI82
aI82
aI48
aI82
aI82
aI63
aI56
aI82
aI82
aI82
aI82
aI61
aI61
aI82
aI43
aI82
aI82
aI52
aI82
aI82
aI82
aI82
aI82
aI83
aI82
aI63
aI65
aI43
aI82
aI82
aI82
aI82
aI82
aI82
aI82
aI82
aI57
aI79
aI82
aI42
aI48
aI82
aI82
aI82
aI82
aI82
aI81
aI71
aI82
aI82
aI39
aI82
aI82
aI82
aI57
aI61
aI74
aI82
aI82
aI83
aI82
aI82
aI82
aI82
aI41
aI82
aI52
aI77
aI61
aI82
aI82
aI82
aI82
aI82
aI47
aI82
aI56
aI82
aI82
aI82
aI82
aI56
aI82
aI47
aI82
aI82
aI66
aI82
aI82
aI48
aI82
aI82
aI82
aI82
aI82
aI82
aI54
aI82
aI82
aI82
aI82
aI82
aI82
aI40
aI82
aI82
aI82
aI82
aI82
aI82
aI82
aI52
aI43
aI54
aI82
aI82
aI82
aI55
aI82
aI82
aI82
aI82
aI83
aI82
aI82
aI82
aI82
aI48
aI82
aI41
aI82
aI82
aI82
aI82
aI82
aI82
aI82
aI43
aI82
aI82
aI82
aI82
aI83
aI52
aI82
aI43
aI82
aI42
aI82
aI82
aI43
aI82
aI82
aI82
aI82
aI82
aI82
aI82
aI82
aI82
aI82
aI82
aI82
aI82
aI83
aI82
aI80
aI65
aI85
aI82
aI82
aI82
aI82
aI82
aI82
aI82
aI56
aI82
aI82
aI81
aI40
aI82
aI82
aI82
aI82
aI52
aI55
aI56
aI82
aI82
aI82
aI82
aI82
aI42
aI46
aI82
aI82
aI82
aI82
aI82
aI39
aI82
aI82
aI41
aI64
aI82
aI82
aI82
aI82
aI80
aI85
aI82
aI82
aI82
aI82
aI82
aI82
aI82
aI82
aI82
aI52
aI82
aI82
aI82
aI82
aI82
aI82
aI82
aI82
aI82
aI82
aI82
aI82
aI65
aI39
aI82
aI82
aI82
aI82
aI82
aI52
aI61
aI82
aI57
aI82
aI82
aI43
aI74
aI82
aI58
aI82
aI84
aI82
aI82
aI85
aI82
aI82
aI82
aI82
aI82
aI73
aI82
aI52
aI82
aI82
aI82
aI43
aI82
aI82
aI82
aI82
aI82
aI65
aI82
aI82
aI82
aI65
aI82
aI82
aI54
aI82
aI82
aI82
aI82
aI82
aI82
aI82
aI82
aI84
aI82
aI82
aI82
aI82
aI79
aI82
aI82
aI82
aI47
aI82
aI82
aI82
aI82
aI39
aI82
aI82
aI83
aI82
aI83
aI39
aI82
aI39
aI82
aI82
aI82
aI82
aI82
aI47
aI82
aI67
aI82
aI82
aI82
aI82
aI82
aI82
aI82
aI82
aI82
aI82
aI82
aI44
aI82
aI82
aI82
aI80
aI61
aI82
aI39
aI82
aI82
aI82
aI82
aI77
aI82
aI76
aI82
aI66
aI56
aI82
aI80
aI82
aI82
aI82
aI82
aI82
aI82
aI82
aI82
aI48
aI74
aI82
aI82
aI54
aI82
aI82
aI82
aI76
aI82
aI76
aI82
aI39
aI82
aI82
aI82
aI82
aI82
aI52
aI82
aI82
aI82
aI82
aI82
aI82
aI67
aI82
aI63
aI82
aI82
aI77
aI82
aI82
aI45
aI82
aI82
aI82
aI82
aI100
aI82
aI82
aI82
aI66
aI45
aI82
aI82
aI82
aI82
aI82
aI82
aI82
aI82
aI82
aI82
aI80
aI39
aI85
aI82
aI82
aI82
aI40
aI82
aI82
aI54
aI82
aI82
aI82
aI82
aI82
aI82
aI81
aI82
aI82
aI81
aI81
aI82
aI82
aI82
aI83
aI153
aI40
aI83
aI82
aI82
aI65
aI66
aI82
aI82
aI82
aI82
aI82
aI82
aI82
aI82
aI82
aI82
aI82
aI52
aI82
aI82
aI48
aI82
aI54
aI83
aI82
aI47
aI54
aI82
aI82
aI82
aI82
aI74
aI54
aI82
aI82
aI66
aI54
aI82
aI82
aI82
aI82
aI82
aI82
aI82
aI65
aI82
aI82
aI82
aI48
aI82
aI82
aI82
aI82
aI42
aI82
aI82
aI83
aI82
aI82
aI82
aI82
aI76
aI85
aI79
aI82
aI85
aI83
aI82
aI82
aI85
aI82
aI82
aI82
aI82
aI82
aI82
aI48
aI82
aI82
aI82
aI82
aI82
aI82
aI82
aI82
aI82
aI82
aI82
aI82
aI82
aI82
aI82
aI82
aI82
aI82
aI82
aI82
aI82
aI82
aI100
aI82
aI57
aI82
aI82
aI83
aI82
aI82
aI82
aI47
aI74
aI82
aI82
aI39
aI74
aI82
aI67
aI48
aI57
aI80
aI82
aI82
aI48
aI82
aI82
aI39
aI80
aI39
aI79
aI82
aI82
aI82
aI82
aI82
aI82
aI82
aI82
aI82
aI82
aI82
aI82
aI82
aI82
aI82
aI82
aI82
aI63
aI79
aI82
aI82
aI82
aI76
aI83
aI82
aI82
aI82
aI47
aI79
aI43
aI82
aI82
aI58
aI82
aI82
aI48
aI82
aI65
aI82
aI82
aI82
aI82
aI82
aI82
aI82
aI82
aI82
aI82
aI56
aI82
aI82
aI82
aI82
aI79
aI82
aI82
aI82
aI82
aI82
aI82
aI82
aI82
aI82
aI82
aI82
aI82
aI82
aI79
aI82
aI82
aI81
aI82
aI84
aI82
aI82
aI82
aI43
aI82
aI52
aI82
aI82
aI82
aI82
aI82
aI82
aI82
aI82
aI82
aI82
aI82
aI82
aI100
aI82
aI82
aI82
aI82
aI82
aI82
aI43
aI80
aI84
aI82
aI82
aI82
aI76
aI82
aI76
aI82
aI66
aI82
aI82
aI52
aI82
aI82
aI54
aI83
aI82
aI82
aI82
aI82
aI82
aI82
aI82
aI82
aI82
aI82
aI82
aI82
aI82
aI82
aI39
aI82
aI82
aI56
aI82
aI82
aI82
aI57
aI82
aI82
aI43
aI82
aI82
aI82
aI82
aI54
aI43
aI82
aI82
aI82
aI82
aI82
aI82
aI54
aI82
aI82
aI82
aI83
aI77
aI82
aI82
aI82
aI82
aI82
aI74
aI82
aI82
aI43
aI82
aI82
aI66
aI82
aI56
aI82
aI77
aI82
aI82
aI80
aI153
aI85
aI82
aI82
aI82
aI82
aI82
aI82
aI82
aI82
aI54
aI82
aI82
aI82
aI82
aI82
aI82
aI82
aI82
aI82
aI82
aI82
aI82
aI82
aI82
aI82
aI83
aI47
aI82
aI82
aI82
aI82
aI82
aI82
aI82
aI82
aI82
aI82
aI83
aI45
aI82
aI82
aI82
aI82
aI82
aI82
aI82
aI79
aI82
aI82
aI82
aI43
aI82
aI39
aI82
aI82
aI82
aI82
aI82
aI82
aI82
aI82
aI82
aI82
aI82
aI82
aI39
aI43
aI84
aI39
aI82
aI82
aI82
aI82
aI82
aI82
aI100
aI82
aI82
aI45
aI82
aI82
aI83
aI82
aI82
aI82
aI82
aI82
aI82
aI82
aI82
aI82
aI100
aI84
aI82
aI82
aI82
aI82
aI82
aI82
aI39
aI82
aI52
aI82
aI82
aI82
aI82
aI82
aI43
aI82
aI82
aI82
aI153
aI82
aI82
aI82
aI83
aI82
aI82
aI82
aI47
aI82
aI84
aI43
aI82
aI82
aI82
aI82
aI79
aI82
aI82
aI40
aI82
aI82
aI39
aI55
aI82
aI82
aI82
aI82
aI65
aI82
aI82
aI82
aI82
aI82
aI43
aI82
aI82
aI46
aI82
aI82
aI63
aI82
aI56
aI79
aI82
aI82
aI82
aI82
aI82
aI82
aI82
aI82
aI82
aI82
aI82
aI80
aI52
aI85
aI68
aI82
aI66
aI82
aI82
aI82
aI56
aI82
aI79
aI82
aI82
aI82
aI83
aI82
aI82
aI49
aI82
aI82
aI82
aI56
aI82
aI82
aI82
aI82
aI41
aI82
aI81
aI44
aI82
aI82
aI82
aI52
aI82
aI54
aI82
aI82
aI39
aI82
aI82
aI43
aI82
aI82
aI82
aI82
aI82
aI82
aI82
aI82
aI82
aI82
aI82
aI82
aI39
aI48
aI82
aI82
aI79
aI80
aI85
aI82
aI46
aI117
aI83
aI43
aI80
aI82
aI82
aI82
aI82
aI82
aI54
aI82
aI82
aI82
aI82
aI81
aI58
aI82
aI82
aI82
aI82
aI82
aI56
aI82
aI82
aI46
aI83
aI56
aI82
aI82
aI82
aI82
aI82
aI82
aI82
aI82
aI82
aI82
aI80
aI86
aI82
aI82
aI82
aI82
aI82
aI82
aI82
aI84
aI82
aI65
aI74
aI82
aI82
aI54
aI82
aI65
aI82
aI82
aI82
aI82
aI82
aI82
aI43
aI82
aI82
aI82
aI82
aI82
aI80
aI85
aI82
aI66
aI82
aI82
aI45
aI83
aI82
aI82
aI82
aI65
aI100
aI63
aI82
aI82
aI54
aI82
aI82
aI82
aI82
aI80
aI82
aI82
aI82
aI82
aI43
aI82
aI45
aI82
aI82
aI82
aI82
aI82
aI82
aI82
aI82
aI82
aI82
aI82
aI82
aI82
aI82
aI52
aI52
aI82
aI82
aI39
aI43
aI82
aI82
aI82
aI82
aI82
aI82
aI79
aI82
aI54
aI82
aI82
aI82
aI82
aI82
aI54
aI82
aI76
aI82
aI82
aI56
aI82
aI82
aI82
aI82
aI84
aI82
aI82
aI82
aI82
aI67
aI82
aI82
aI52
aI74
aI39
aI61
aI82
aI82
aI82
aI82
aI62
aI82
aI82
aI83
aI82
aI82
aI82
aI82
aI48
aI82
aI82
aI82
aI82
aI82
aI82
aI82
aI82
aI82
aI82
aI82
aI49
aI82
aI39
aI81
aI76
aI82
aI137
aI83
aI82
aI82
aI82
aI82
aI82
aI46
aI84
aI82
aI82
aI43
aI65
aI82
aI59
aI82
aI82
aI82
aI82
aI74
aI56
aI48
aI82
aI82
aI54
aI82
aI82
aI82
aI80
aI63
aI82
aI82
aI82
aI65
aI82
aI82
aI82
aI82
aI82
aI82
aI82
aI82
aI82
aI82
aI82
aI82
aI82
aI82
aI49
aI82
aI64
aI82
aI65
aI82
aI82
aI82
aI81
aI82
aI82
aI83
aI65
aI82
aI82
aI82
aI82
aI82
aI82
aI82
aI82
aI54
aI82
aI52
aI82
aI45
aI82
aI82
aI82
aI82
aI82
aI82
aI82
aI57
aI82
aI82
aI82
aI46
aI85
aI54
aI82
aI61
aI82
aI82
aI82
aI82
aI80
aI82
aI57
aI82
aI79
aI82
aI83
aI82
aI82
aI82
aI83
aI82
aI82
aI82
aI76
aI48
aI82
aI82
aI82
aI82
aI52
aI82
aI64
aI83
aI82
aI76
aI82
aI82
aI82
aI82
aI82
aI82
aI83
aI82
aI82
aI82
aI82
aI82
aI58
aI67
aI82
aI82
aI82
aI82
aI82
aI82
aI82
aI82
aI82
aI82
aI82
aI82
aI82
aI82
aI57
aI82
aI100
aI82
aI82
aI63
aI82
aI82
aI47
aI82
aI82
aI82
aI82
aI71
aI82
aI82
aI82
aI82
aI82
aI43
aI57
aI82
aI82
aI82
aI82
aI82
aI82
aI55
aI82
aI82
aI82
aI76
aI82
aI82
aI44
aI82
aI39
aI82
aI57
aI79
aI82
aI82
aI79
aI82
aI82
aI82
aI82
aI82
aI82
aI82
aI82
aI82
aI47
aI83
aI100
aI82
aI82
aI82
aI82
aI82
aI77
aI82
aI82
aI82
aI82
aI82
aI58
aI82
aI82
aI82
aI82
aI82
aI46
aI83
aI82
aI82
aI76
aI61
aI82
aI82
aI82
aI82
aI82
aI55
aI46
aI82
aI82
aI39
aI82
aI84
aI82
aI66
aI82
aI82
aI82
aI56
aI47
aI82
aI82
aI82
aI82
aI66
aI82
aI82
aI82
aI85
aI82
aI82
aI82
aI82
aI44
aI82
aI82
aI82
aI74
aI82
aI82
aI82
aI82
aI82
aI82
aI82
aI82
aI82
aI82
aI85
aI82
aI76
aI82
aI82
aI82
aI82
aI82
aI82
aI82
aI82
aI82
aI82
aI46
aI82
aI82
aI82
aI82
aI82
aI82
aI83
aI82
aI82
aI82
aI82
aI82
aI82
aI82
aI82
aI82
aI82
aI41
aI82
aI82
aI43
aI82
aI40
aI65
aI81
aI82
aI82
aI82
aI82
aI74
aI82
aI82
aI44
aI82
aI82
aI47
aI48
aI82
aI82
aI41
aI80
aI65
aI82
aI82
aI43
aI82
aI82
aI82
aI82
aI82
aI82
aI40
aI82
aI71
aI74
aI82
aI43
aI82
aI82
aI82
aI82
aI82
aI82
aI82
aI65
aI82
aI82
aI43
aI82
aI82
aI82
aI82
aI48
aI82
aI82
aI55
aI82
aI82
aI82
aI82
aI82
aI80
aI82
aI57
aI66
aI82
aI82
aI43
aI48
aI71
aI82
aI82
aI82
aI43
aI46
aI82
aI39
aI79
aI85
aI100
aI82
aI82
aI82
aI82
aI66
aI65
aI82
aI82
aI82
aI82
aI82
aI80
aI85
aI47
aI80
aI85
aI79
aI77
aI82
aI82
aI82
aI82
aI84
aI82
aI82
aI58
aI79
aI43
aI85
aI82
aI82
aI82
aI44
aI82
aI82
aI43
aI82
aI82
aI82
aI43
aI82
aI82
aI82
aI82
aI79
aI82
aI84
aI77
aI63
aI82
aI82
aI82
aI82
aI82
aI85
aI54
aI82
aI82
aI82
aI82
aI44
aI82
aI82
aI76
aI79
aI82
aI82
aI66
aI82
aI82
aI82
aI82
aI82
aI65
aI74
aI82
aI82
aI48
aI82
aI82
aI82
aI43
aI82
aI82
aI82
aI74
aI82
aI82
aI82
aI67
aI82
aI82
aI82
aI82
aI82
aI82
aI81
aI82
aI82
aI82
aI83
aI82
aI43
aI82
aI82
aI82
aI82
aI82
aI82
aI134
aI82
aI82
aI82
aI84
aI43
aI82
aI80
aI82
aI82
aI65
aI82
aI82
aI54
aI46
aI82
aI82
aI82
aI82
aI82
aI82
aI82
aI82
aI82
aI82
aI79
aI82
aI82
aI82
aI82
aI82
aI82
aI54
aI43
aI82
aI82
aI46
aI82
aI82
aI83
aI45
aI82
aI71
aI83
aI82
aI82
aI82
aI54
aI82
aI82
aI82
aI64
aI56
aI82
aI82
aI82
aI82
aI82
aI82
aI82
aI82
aI82
aI82
aI83
aI100
aI48
aI82
aI52
aI82
aI82
aI82
aI82
aI79
aI84
aI82
aI82
aI82
aI82
aI52
aI82
aI82
aI82
aI82
aI82
aI82
aI82
aI82
aI82
aI82
aI82
aI54
aI82
aI82
aI82
aI82
aI82
aI134
aI71
aI48
aI82
aI71
aI82
aI82
aI82
aI82
aI82
aI82
aI82
aI82
aI66
aI82
aI80
aI82
aI82
aI82
aI82
aI56
aI82
aI82
aI82
aI82
aI82
aI82
aI79
aI80
aI77
aI65
aI39
aI82
aI82
aI39
aI82
aI82
aI82
aI80
aI82
aI82
aI82
aI82
aI82
aI82
aI82
aI82
aI74
aI82
aI82
aI56
aI65
aI82
aI82
aI82
aI82
aI82
aI82
aI54
aI82
aI44
aI82
aI82
aI82
aI82
aI82
aI82
aI82
aI52
aI82
aI82
aI82
aI82
aI58
aI82
aI82
aI137
aI66
aI82
aI82
aI65
aI84
aI64
aI83
aI82
aI82
aI82
aI82
aI82
aI82
aI82
aI82
aI82
aI82
aI82
aI79
aI81
aI82
aI82
aI84
aI82
aI82
aI82
aI82
aI82
aI82
aI82
aI82
aI82
aI82
aI46
aI82
aI82
aI82
aI82
aI82
aI43
aI82
aI82
aI63
aI82
aI82
aI82
aI82
aI82
aI82
aI82
aI82
aI82
aI82
aI82
aI82
aI82
aI82
aI82
aI82
aI82
aI82
aI82
aI64
aI85
aI82
aI82
aI82
aI82
aI82
aI82
aI82
aI82
aI82
aI82
aI84
aI82
aI82
aI82
aI82
aI82
aI82
aI82
aI82
aI82
aI82
aI82
aI77
aI63
aI82
aI49
aI82
aI82
aI82
aI82
aI82
aI71
aI82
aI82
aI82
aI82
aI79
aI82
aI82
aI82
aI76
aI81
aI82
aI82
aI82
aI82
aI82
aI47
aI82
aI61
aI56
aI82
aI82
aI82
aI82
aI82
aI137
aI118
aI71
aI82
aI81
aI82
aI82
aI82
aI82
aI54
aI56
aI82
aI67
aI82
aI82
aI69
aI82
aI82
aI82
aI118
aI48
aI67
aI71
aI52
aI47
aI82
aI82
aI82
aI82
aI82
aI82
aI82
aI82
aI85
aI82
aI82
aI52
aI82
aI56
aI52
aI82
aI82
aI82
aI82
aI82
aI82
aI82
aI82
aI58
aI82
aI82
aI82
aI82
aI82
aI82
aI82
aI84
aI82
aI82
aI82
aI56
aI82
aI82
aI82
aI80
aI71
aI82
aI39
aI82
aI82
aI82
aI82
aI82
aI82
aI82
aI65
aI84
aI44
aI82
aI82
aI82
aI82
aI65
aI82
aI82
aI82
aI82
aI82
aI47
aI82
aI82
aI82
aI82
aI82
aI82
aI82
aI82
aI84
aI82
aI82
aI66
aI82
aI82
aI84
aI82
aI82
aI82
aI82
aI80
aI82
aI82
aI65
aI74
aI82
aI82
aI44
aI82
aI82
aI44
aI82
aI82
aI82
aI82
aI81
aI82
aI82
aI56
aI82
aI82
aI82
aI52
aI82
aI82
aI82
aI82
aI82
aI82
aI82
aI52
aI82
aI56
aI82
aI82
aI82
aI82
aI84
aI82
aI82
aI80
aI82
aI82
aI82
aI82
aI82
aI83
aI82
aI58
aI74
aI82
aI56
aI74
aI82
aI66
aI82
aI82
aI82
aI82
aI82
aI82
aI85
aI82
aI82
aI82
aI82
aI82
aI43
aI82
aI82
aI73
aI82
aI82
aI82
aI82
aI48
aI82
aI82
aI82
aI82
aI82
aI82
aI82
aI82
aI63
aI56
aI48
aI82
aI83
aI82
aI82
aI67
aI82
aI82
aI63
aI82
aI82
aI54
aI82
aI82
aI56
aI82
aI82
aI82
aI82
aI82
aI82
aI82
aI82
aI74
aI82
aI82
aI82
aI82
aI82
aI82
aI45
aI82
aI82
aI40
aI74
aI82
aI40
aI82
aI82
aI82
aI82
aI82
aI82
aI82
aI55
aI82
aI82
aI82
aI82
aI82
aI82
aI61
aI82
aI58
aI82
aI82
aI82
aI82
aI82
aI82
aI82
aI82
aI82
aI74
aI82
aI82
aI82
aI82
aI82
aI43
aI44
aI82
aI82
aI82
aI82
aI82
aI82
aI82
aI82
aI55
aI82
aI79
aI82
aI82
aI83
aI79
aI82
aI82
aI82
aI83
aI82
aI65
aI65
aI75
aI82
aI82
aI82
aI63
aI82
aI83
aI82
aI82
aI82
aI66
aI82
aI82
aI82
aI82
aI82
aI80
aI82
aI82
aI82
aI66
aI82
aI43
aI82
aI82
aI78
aI100
aI82
aI82
aI47
aI49
aI82
aI52
aI82
aI82
aI84
aI82
aI82
aI65
aI82
aI52
aI82
aI82
aI82
aI82
aI82
aI82
aI82
aI82
aI82
aI119
aI82
aI82
aI82
aI82
aI82
aI79
aI82
aI80
aI82
aI82
aI44
aI82
aI82
aI82
aI85
aI82
aI43
aI82
aI63
aI82
aI82
aI82
aI83
aI66
aI82
aI82
aI82
aI82
aI52
aI137
aI71
aI82
aI82
aI82
aI79
aI54
aI82
aI82
aI82
aI107
aI71
aI71
aI71
aI82
aI56
aI82
aI85
aI82
aI82
aI82
aI82
aI82
aI82
aI82
aI63
aI82
aI82
aI82
aI65
aI82
aI82
aI48
aI82
aI82
aI82
aI79
aI82
aI82
aI82
aI82
aI82
aI82
aI82
aI82
aI82
aI77
aI82
aI82
aI48
aI82
aI82
aI82
aI82
aI82
aI82
aI82
aI82
aI82
aI82
aI82
aI41
aI82
aI41
aI48
aI82
aI82
aI82
aI82
aI82
aI82
aI56
aI82
aI82
aI81
aI82
aI82
aI83
aI52
aI82
aI82
aI82
aI82
aI82
aI82
aI82
aI82
aI82
aI82
aI48
aI52
aI82
aI82
aI82
aI82
aI56
aI82
aI82
aI82
aI52
aI65
aI82
aI80
aI85
aI82
aI43
aI82
aI82
aI82
aI82
aI55
aI84
aI82
aI82
aI82
aI82
aI82
aI82
aI82
aI82
aI71
aI82
aI82
aI82
aI82
aI67
aI82
aI82
aI82
aI82
aI82
aI82
aI82
aI82
aI82
aI82
aI82
aI82
aI54
aI82
aI82
aI82
aI82
aI67
aI82
aI82
aI54
aI82
aI82
aI76
aI82
aI65
aI39
aI82
aI79
aI82
aI82
aI82
aI82
aI82
aI82
aI82
aI63
aI82
aI65
aI118
aI65
aI118
aI82
aI82
aI82
aI43
aI71
aI82
aI39
aI82
aI82
aI82
aI82
aI58
aI52
aI124
aI68
aI57
aI82
aI82
aI43
aI82
aI82
aI82
aI82
aI82
aI82
aI82
aI63
aI82
aI39
aI39
aI82
aI82
aI82
aI56
aI82
aI79
aI80
aI47
aI82
aI83
aI82
aI82
aI66
aI82
aI82
aI52
aI82
aI82
aI82
aI82
aI82
aI82
aI82
aI82
aI82
aI48
aI55
aI82
aI82
aI82
aI82
aI82
aI82
aI83
aI82
aI82
aI82
aI82
aI39
aI82
aI82
aI82
aI82
aI82
aI80
aI43
aI57
aI71
aI82
aI84
aI74
aI71
aI82
aI82
aI82
aI43
aI83
aI71
aI82
aI82
aI82
aI83
aI83
aI71
aI82
aI83
aI80
aI62
aI39
aI82
aI73
aI82
aI54
aI43
aI82
aI82
aI82
aI82
aI54
aI82
aI83
aI83
aI83
aI43
aI71
aI83
aI83
aI44
aI83
aI71
aI83
aI83
aI83
aI71
aI39
aI83
aI83
aI48
aI71
aI83
aI71
aI55
aI81
aI81
aI62
aI65
aI39
aI81
aI81
aI81
aI81
aI81
aI81
aI39
aI80
aI81
aI81
aI81
aI81
aI81
aI43
aI81
aI52
aI57
aI81
aI81
aI65
aI81
aI81
aI81
aI83
aI83
aI83
aI81
aI83
aI81
aI39
aI83
aI81
aI82
aI58
aI56
aI83
aI83
aI67
aI63
aI47
aI71
aI81
aI81
aI79
aI60
aI81
aI81
aI81
aI81
aI81
aI41
aI83
aI64
aI84
aI81
aI81
aI43
aI83
aI83
aI83
aI60
aI81
aI81
aI81
aI83
aI81
aI83
aI81
aI83
aI64
aI66
aI57
aI66
aI66
aI83
aI83
aI83
aI83
aI83
aI83
aI83
aI83
aI68
aI84
aI83
aI71
aI83
aI83
aI82
aI83
aI83
aI83
aI82
aI41
aI43
aI83
aI80
aI71
aI76
aI64
aI47
aI71
aI83
aI83
aI82
aI82
aI83
aI82
aI39
aI83
aI39
aI83
aI83
aI82
aI83
aI79
aI82
aI54
aI55
aI81
aI62
aI81
aI81
aI81
aI81
aI81
aI81
aI81
aI62
aI81
aI81
aI82
aI81
aI81
aI81
aI81
aI81
aI48
aI62
aI81
aI81
aI81
aI66
aI66
aI52
aI83
aI82
aI66
aI66
aI80
aI83
aI83
aI83
aI83
aI83
aI83
aI137
aI90
aI83
aI83
aI43
aI39
aI71
aI83
aI83
aI71
aI83
aI83
aI71
aI83
aI71
aI82
aI83
aI83
aI82
aI83
aI82
aI83
aI84
aI54
aI66
aI66
aI66
aI66
aI66
aI66
aI66
aI83
aI83
aI67
aI83
aI56
aI63
aI48
aI81
aI81
aI81
aI81
aI81
aI81
aI45
aI81
aI56
aI81
aI65
aI81
aI81
aI46
aI81
aI81
aI81
aI81
aI81
aI81
aI82
aI61
aI82
aI71
aI80
aI71
aI83
aI71
aI82
aI83
aI71
aI83
aI82
aI44
aI71
aI67
aI118
aI52
aI39
aI66
aI66
aI83
aI65
aI66
aI62
aI66
aI66
aI66
aI83
aI83
aI84
aI41
aI83
aI84
aI83
aI84
aI83
aI68
aI83
aI68
aI65
aI43
aI82
aI82
aI82
aI43
aI44
aI81
aI81
aI81
aI81
aI81
aI81
aI81
aI81
aI81
aI81
aI81
aI81
aI81
aI81
aI60
aI81
aI82
aI71
aI82
aI71
aI71
aI82
aI83
aI82
aI83
aI84
aI54
aI66
aI66
aI66
aI66
aI66
aI66
aI54
aI66
aI66
aI66
aI83
aI83
aI84
aI66
aI84
aI71
aI71
aI153
aI71
aI71
aI71
aI64
aI83
aI71
aI71
aI71
aI71
aI71
aI83
aI66
aI54
aI66
aI66
aI82
aI71
aI39
aI71
aI71
aI71
aI71
aI71
aI71
aI71
aI71
aI71
aI70
aI81
aI81
aI56
aI81
aI81
aI81
aI81
aI81
aI81
aI81
aI64
aI55
aI81
aI81
aI81
aI52
aI81
aI82
aI71
aI64
aI71
aI71
aI45
aI71
aI71
aI72
aI71
aI71
aI71
aI39
aI71
aI71
aI71
aI71
aI63
aI71
aI71
aI74
aI71
aI71
aI118
aI71
aI71
aI71
aI71
aI71
aI71
aI79
aI71
aI71
aI43
aI61
aI71
aI71
aI71
aI71
aI71
aI71
aI88
aI80
aI79
aI134
aI71
aI54
aI71
aI47
aI71
aI71
aI85
aI71
aI71
aI71
aI39
aI71
aI88
aI71
aI71
aI71
aI47
aI71
aI71
aI65
aI71
aI76
aI71
aI71
aI71
aI71
aI71
aI71
aI71
aI71
aI70
aI47
aI71
aI71
aI71
aI71
aI71
aI71
aI71
aI71
aI58
aI71
aI71
aI71
aI71
aI71
aI71
aI71
aI71
aI80
aI71
aI71
aI71
aI71
aI54
aI71
aI71
aI71
aI71
aI71
aI71
aI65
aI65
aI71
aI71
aI71
aI71
aI71
aI71
aI71
aI52
aI70
aI71
aI71
aI71
aI46
aI71
aI71
aI71
aI71
aI71
aI71
aI71
aI71
aI71
aI71
aI71
aI82
aI71
aI73
aI71
aI71
aI83
aI71
aI71
aI71
aI71
aI71
aI71
aI71
aI43
aI48
aI71
aI71
aI71
aI71
aI71
aI71
aI71
aI71
aI71
aI71
aI71
aI71
aI71
aI71
aI71
aI71
aI71
aI71
aI73
aI71
aI88
aI69
aI71
aI71
aI71
aI71
aI71
aI71
aI71
aI71
aI71
aI71
aI71
aI71
aI81
aI69
aI52
aI71
aI40
aI70
aI71
aI69
aI71
aI71
aI71
aI71
aI71
aI71
aI71
aI71
aI71
aI71
aI71
aI71
aI71
aI71
aI64
aI71
aI83
aI71
aI71
aI71
aI71
aI71
aI71
aI71
aI71
aI71
aI71
aI71
aI69
aI84
aI71
aI71
aI71
aI67
aI71
aI40
aI71
aI56
aI71
aI69
aI71
aI71
aI47
aI71
aI71
aI71
aI71
aI72
aI71
aI71
aI47
aI52
aI71
aI71
aI71
aI71
aI71
aI71
aI71
aI71
aI65
aI64
aI55
aI54
aI81
aI81
aI71
aI61
aI71
aI71
aI81
aI71
aI71
aI40
aI71
aI71
aI71
aI69
aI71
aI71
aI71
aI71
aI71
aI71
aI137
aI71
aI71
aI71
aI71
aI71
aI71
aI71
aI71
aI71
aI71
aI71
aI71
aI71
aI71
aI71
aI71
aI71
aI71
aI71
aI63
aI70
aI71
aI71
aI82
aI71
aI71
aI71
aI71
aI71
aI71
aI67
aI71
aI71
aI71
aI64
aI71
aI71
aI71
aI71
aI50
aI71
aI71
aI71
aI71
aI71
aI71
aI71
aI81
aI71
aI71
aI71
aI71
aI64
aI71
aI71
aI73
aI69
aI71
aI71
aI71
aI45
aI70
aI71
aI71
aI71
aI71
aI56
aI71
aI71
aI71
aI81
aI71
aI71
aI71
aI71
aI71
aI71
aI88
aI71
aI71
aI71
aI71
aI71
aI71
aI71
aI71
aI71
aI71
aI71
aI71
aI71
aI71
aI71
aI71
aI71
aI65
aI71
aI71
aI71
aI71
aI71
aI70
aI71
aI71
aI71
aI71
aI71
aI71
aI71
aI71
aI40
aI71
aI63
aI88
aI71
aI71
aI71
aI71
aI71
aI71
aI71
aI71
aI69
aI71
aI71
aI71
aI71
aI71
aI71
aI71
aI71
aI71
aI81
aI71
aI71
aI71
aI71
aI71
aI71
aI71
aI71
aI71
aI71
aI71
aI71
aI71
aI71
aI54
aI71
aI83
aI71
aI71
aI71
aI71
aI71
aI63
aI71
aI71
aI71
aI71
aI71
aI71
aI71
aI71
aI55
aI63
aI71
aI71
aI71
aI71
aI71
aI71
aI71
aI71
aI71
aI52
aI71
aI71
aI71
aI71
aI71
aI71
aI54
aI137
aI71
aI88
aI71
aI71
aI71
aI71
aI71
aI61
aI65
aI71
aI71
aI71
aI71
aI71
aI71
aI71
aI137
aI70
aI71
aI39
aI71
aI71
aI71
aI71
aI71
aI52
aI71
aI69
aI71
aI71
aI43
aI71
aI71
aI71
aI71
aI45
aI71
aI71
aI71
aI71
aI45
aI71
aI71
aI71
aI69
aI71
aI71
aI71
aI52
aI71
aI39
aI71
aI71
aI71
aI39
aI55
aI71
aI71
aI71
aI58
aI52
aI71
aI71
aI71
aI71
aI71
aI71
aI71
aI60
aI54
aI71
aI118
aI71
aI71
aI71
aI71
aI71
aI69
aI71
aI85
aI71
aI43
aI71
aI71
aI71
aI56
aI88
aI76
aI71
aI71
aI71
aI71
aI71
aI71
aI71
aI71
aI71
aI71
aI88
aI71
aI71
aI71
aI71
aI71
aI71
aI71
aI56
aI71
aI84
aI71
aI71
aI54
aI43
aI71
aI71
aI71
aI52
aI69
aI71
aI71
aI48
aI71
aI70
aI59
aI65
aI71
aI71
aI71
aI71
aI71
aI71
aI71
aI42
aI52
aI39
aI71
aI71
aI71
aI56
aI64
aI71
aI71
aI71
aI73
aI84
aI71
aI65
aI63
aI71
aI137
aI71
aI81
aI57
aI71
aI71
aI71
aI39
aI71
aI71
aI71
aI71
aI70
aI71
aI71
aI71
aI71
aI71
aI71
aI71
aI71
aI71
aI71
aI71
aI71
aI71
aI70
aI71
aI48
aI71
aI41
aI71
aI84
aI88
aI71
aI71
aI71
aI71
aI70
aI71
aI71
aI55
aI71
aI71
aI71
aI71
aI85
aI71
aI71
aI71
aI71
aI71
aI71
aI71
aI71
aI39
aI71
aI71
aI71
aI71
aI71
aI74
aI65
aI46
aI61
aI67
aI71
aI71
aI71
aI71
aI71
aI43
aI71
aI39
aI71
aI71
aI71
aI47
aI71
aI71
aI74
aI71
aI40
aI71
aI71
aI71
aI69
aI73
aI52
aI71
aI43
aI83
aI71
aI52
aI71
aI71
aI71
aI56
aI71
aI71
aI71
aI71
aI71
aI71
aI52
aI71
aI71
aI71
aI71
aI71
aI88
aI71
aI71
aI71
aI71
aI71
aI71
aI71
aI71
aI47
aI71
aI70
aI44
aI71
aI54
aI71
aI71
aI71
aI63
aI52
aI71
aI82
aI82
aI71
aI71
aI81
aI71
aI71
aI39
aI71
aI70
aI39
aI71
aI54
aI71
aI71
aI54
aI71
aI71
aI71
aI71
aI56
aI71
aI74
aI71
aI85
aI118
aI71
aI55
aI71
aI71
aI39
aI46
aI71
aI43
aI71
aI71
aI71
aI71
aI71
aI71
aI88
aI71
aI69
aI69
aI71
aI39
aI71
aI71
aI71
aI71
aI71
aI57
aI73
aI71
aI71
aI71
aI71
aI71
aI71
aI71
aI71
aI71
aI71
aI53
aI71
aI71
aI71
aI71
aI71
aI71
aI71
aI71
aI65
aI71
aI71
aI71
aI64
aI71
aI71
aI71
aI71
aI48
aI71
aI71
aI71
aI81
aI57
aI71
aI71
aI63
aI71
aI71
aI71
aI69
aI71
aI71
aI71
aI71
aI88
aI71
aI71
aI71
aI71
aI71
aI71
aI71
aI79
aI52
aI71
aI71
aI71
aI56
aI64
aI71
aI71
aI71
aI71
aI82
aI71
aI79
aI67
aI47
aI71
aI84
aI61
aI71
aI55
aI71
aI71
aI71
aI117
aI71
aI85
aI71
aI71
aI71
aI71
aI72
aI71
aI71
aI71
aI71
aI45
aI46
aI71
aI71
aI71
aI71
aI48
aI71
aI44
aI88
aI69
aI71
aI71
aI71
aI71
aI71
aI71
aI71
aI71
aI64
aI71
aI78
aI85
aI63
aI71
aI71
aI39
aI71
aI70
aI71
aI72
aI71
aI71
aI47
aI43
aI71
aI63
aI71
aI71
aI71
aI64
aI71
aI46
aI46
aI71
aI71
aI71
aI71
aI71
aI71
aI71
aI71
aI71
aI71
aI39
aI46
aI71
aI71
aI71
aI71
aI71
aI71
aI71
aI84
aI70
aI71
aI48
aI84
aI71
aI71
aI71
aI71
aI71
aI82
aI71
aI71
aI71
aI71
aI55
aI84
aI47
aI58
aI71
aI71
aI71
aI71
aI71
aI73
aI71
aI56
aI71
aI71
aI52
aI71
aI71
aI71
aI85
aI71
aI71
aI81
aI71
aI71
aI71
aI55
aI69
aI71
aI71
aI71
aI71
aI71
aI71
aI71
aI71
aI71
aI57
aI71
aI72
aI71
aI71
aI71
aI71
aI71
aI71
aI71
aI71
aI71
aI71
aI71
aI74
aI67
aI74
aI84
aI71
aI73
aI71
aI71
aI71
aI71
aI81
aI71
aI71
aI71
aI39
aI71
aI71
aI71
aI71
aI71
aI71
aI71
aI79
aI71
aI71
aI71
aI71
aI71
aI71
aI71
aI52
aI71
aI71
aI71
aI54
aI71
aI71
aI71
aI71
aI71
aI71
aI71
aI89
aI71
aI71
aI71
aI47
aI71
aI71
aI56
aI71
aI43
aI71
aI71
aI71
aI71
aI71
aI71
aI71
aI71
aI81
aI71
aI71
aI61
aI71
aI71
aI88
aI71
aI43
aI71
aI71
aI71
aI71
aI71
aI71
aI70
aI43
aI39
aI71
aI71
aI71
aI66
aI71
aI71
aI71
aI71
aI52
aI71
aI71
aI71
aI54
aI39
aI81
aI71
aI69
aI65
aI88
aI71
aI71
aI65
aI45
aI71
aI71
aI71
aI71
aI71
aI71
aI83
aI71
aI71
aI39
aI71
aI71
aI39
aI71
aI71
aI71
aI71
aI71
aI71
aI48
aI71
aI71
aI71
aI45
aI70
aI52
aI71
aI71
aI71
aI83
aI71
aI71
aI58
aI71
aI56
aI67
aI71
aI71
aI71
aI71
aI88
aI71
aI71
aI71
aI71
aI71
aI71
aI71
aI52
aI71
aI71
aI71
aI44
aI71
aI71
aI64
aI69
aI71
aI71
aI71
aI71
aI71
aI64
aI67
aI71
aI71
aI71
aI71
aI71
aI69
aI71
aI71
aI71
aI71
aI73
aI71
aI71
aI71
aI47
aI71
aI71
aI61
aI71
aI71
aI71
aI71
aI71
aI71
aI71
aI71
aI71
aI71
aI74
aI134
aI71
aI95
aI71
aI73
aI71
aI50
aI71
aI71
aI52
aI71
aI85
aI39
aI71
aI71
aI71
aI71
aI71
aI71
aI81
aI52
aI71
aI71
aI71
aI71
aI71
aI71
aI44
aI71
aI71
aI71
aI71
aI71
aI71
aI71
aI71
aI71
aI71
aI71
aI71
aI71
aI71
aI71
aI71
aI71
aI71
aI71
aI47
aI61
aI71
aI71
aI71
aI71
aI71
aI71
aI71
aI71
aI39
aI71
aI63
aI71
aI71
aI71
aI71
aI71
aI71
aI85
aI71
aI71
aI71
aI71
aI71
aI71
aI71
aI57
aI71
aI71
aI47
aI71
aI71
aI57
aI61
aI71
aI71
aI71
aI71
aI71
aI71
aI71
aI82
aI74
aI71
aI71
aI71
aI71
aI71
aI71
aI55
aI71
aI71
aI71
aI71
aI71
aI71
aI79
aI47
aI48
aI71
aI71
aI71
aI71
aI71
aI71
aI71
aI73
aI61
aI71
aI71
aI71
aI71
aI69
aI71
aI43
aI71
aI71
aI71
aI71
aI63
aI71
aI71
aI71
aI71
aI71
aI71
aI47
aI71
aI71
aI71
aI52
aI71
aI71
aI71
aI71
aI82
aI71
aI42
aI71
aI71
aI74
aI52
aI71
aI71
aI71
aI71
aI71
aI71
aI71
aI71
aI47
aI71
aI71
aI69
aI71
aI71
aI71
aI58
aI71
aI63
aI71
aI69
aI71
aI69
aI88
aI71
aI53
aI45
aI71
aI71
aI71
aI71
aI44
aI71
aI71
aI81
aI55
aI71
aI71
aI56
aI71
aI71
aI71
aI84
aI71
aI53
aI71
aI71
aI71
aI71
aI71
aI71
aI71
aI71
aI54
aI41
aI71
aI71
aI52
aI71
aI71
aI56
aI48
aI55
aI71
aI71
aI71
aI71
aI54
aI44
aI71
aI84
aI71
aI71
aI71
aI71
aI71
aI71
aI71
aI71
aI47
aI67
aI70
aI71
aI71
aI71
aI71
aI57
aI40
aI71
aI52
aI71
aI71
aI71
aI71
aI71
aI71
aI71
aI71
aI71
aI71
aI71
aI47
aI71
aI71
aI71
aI52
aI71
aI52
aI71
aI42
aI71
aI71
aI71
aI44
aI71
aI71
aI71
aI65
aI71
aI71
aI71
aI71
aI73
aI88
aI71
aI67
aI71
aI71
aI61
aI71
aI71
aI71
aI71
aI137
aI71
aI67
aI71
aI71
aI44
aI71
aI71
aI47
aI47
aI71
aI71
aI47
aI43
aI71
aI66
aI71
aI71
aI71
aI71
aI71
aI71
aI71
aI71
aI71
aI71
aI69
aI71
aI70
aI71
aI71
aI71
aI71
aI70
aI40
aI71
aI71
aI71
aI71
aI71
aI41
aI71
aI71
aI71
aI71
aI71
aI71
aI73
aI71
aI66
aI66
aI71
aI58
aI71
aI71
aI71
aI71
aI71
aI71
aI83
aI70
aI71
aI88
aI71
aI73
aI71
aI71
aI71
aI71
aI46
aI54
aI71
aI71
aI71
aI57
aI71
aI71
aI71
aI71
aI71
aI71
aI71
aI65
aI71
aI71
aI71
aI85
aI71
aI71
aI71
aI71
aI71
aI71
aI71
aI71
aI71
aI71
aI71
aI71
aI58
aI71
aI71
aI71
aI43
aI71
aI71
aI50
aI71
aI71
aI72
aI65
aI71
aI71
aI71
aI71
aI71
aI82
aI71
aI71
aI73
aI71
aI71
aI71
aI71
aI71
aI71
aI49
aI71
aI71
aI71
aI71
aI71
aI71
aI71
aI85
aI71
aI69
aI71
aI71
aI71
aI71
aI65
aI71
aI67
aI71
aI71
aI71
aI84
aI47
aI84
aI47
aI71
aI80
aI71
aI71
aI71
aI71
aI71
aI71
aI48
aI71
aI71
aI71
aI71
aI71
aI71
aI71
aI71
aI71
aI71
aI71
aI71
aI71
aI47
aI46
aI71
aI71
aI71
aI71
aI71
aI71
aI67
aI74
aI71
aI71
aI71
aI71
aI71
aI72
aI71
aI69
aI71
aI83
aI71
aI71
aI81
aI45
aI71
aI54
aI71
aI43
aI71
aI71
aI71
aI71
aI71
aI71
aI53
aI71
aI71
aI71
aI71
aI71
aI71
aI71
aI71
aI71
aI70
aI71
aI71
aI71
aI81
aI48
aI71
aI56
aI71
aI71
aI47
aI88
aI71
aI43
aI71
aI71
aI71
aI54
aI41
aI71
aI71
aI71
aI71
aI39
aI71
aI71
aI71
aI71
aI71
aI71
aI67
aI71
aI71
aI71
aI69
aI70
aI71
aI71
aI52
aI43
aI71
aI71
aI71
aI71
aI61
aI67
aI71
aI71
aI72
aI81
aI71
aI71
aI71
aI54
aI67
aI71
aI71
aI71
aI65
aI71
aI47
aI71
aI47
aI71
aI71
aI45
aI71
aI85
aI71
aI71
aI71
aI71
aI71
aI71
aI85
aI71
aI71
aI65
aI71
aI83
aI83
aI71
aI71
aI83
aI71
aI82
aI71
aI85
aI83
aI71
aI65
aI71
aI71
aI71
aI83
aI134
aI48
aI71
aI71
aI71
aI85
aI118
aI71
aI71
aI55
aI74
aI71
aI71
aI65
aI71
aI71
aI85
aI71
aI71
aI71
aI65
aI71
aI71
aI71
aI71
aI67
aI71
aI65
aI82
aI82
aI82
aI82
aI43
aI82
aI67
aI71
aI71
aI71
aI71
aI39
aI72
aI83
aI71
aI85
aI83
aI82
aI48
aI48
aI44
aI65
aI82
aI55
aI82
aI48
aI81
aI81
aI81
aI45
aI81
aI81
aI74
aI43
aI81
aI67
aI81
aI81
aI81
aI137
aI82
aI82
aI71
aI82
aI71
aI82
aI52
aI84
aI71
aI71
aI71
aI71
aI71
aI71
aI71
aI71
aI47
aI56
aI82
aI82
aI71
aI82
aI46
aI71
aI84
aI86
aI71
aI71
aI71
aI83
aI69
aI45
aI71
aI80
aI39
aI71
aI71
aI71
aI71
aI71
aI71
aI71
aI71
aI39
aI43
aI71
aI85
aI54
aI82
aI82
aI83
aI47
aI82
aI82
aI82
aI82
aI82
aI82
aI74
aI82
aI54
aI118
aI85
aI52
aI71
aI71
aI71
aI71
aI84
aI71
aI71
aI71
aI84
aI71
aI71
aI71
aI82
aI82
aI82
aI82
aI82
aI82
aI82
aI82
aI82
aI82
aI64
aI71
aI80
aI71
aI71
aI71
aI71
aI71
aI52
aI71
aI71
aI71
aI71
aI69
aI82
aI82
aI82
aI82
aI63
aI82
aI79
aI82
aI82
aI63
aI88
aI57
aI82
aI55
aI82
aI82
aI82
aI82
aI81
aI82
aI47
aI82
aI82
aI58
aI82
aI82
aI46
aI82
aI82
aI81
aI71
aI45
aI63
aI71
aI71
aI84
aI55
aI84
aI71
aI84
aI71
aI71
aI82
aI58
aI71
aI84
aI71
aI71
aI82
aI82
aI83
aI82
aI82
aI82
aI81
aI82
aI82
aI67
aI82
aI82
aI82
aI82
aI41
aI82
aI57
aI82
aI83
aI82
aI82
aI82
aI82
aI82
aI82
aI82
aI82
aI82
aI82
aI82
aI82
aI82
aI82
aI82
aI82
aI82
aI43
aI82
aI82
aI48
aI82
aI82
aI82
aI83
aI82
aI82
aI85
aI43
aI82
aI83
aI82
aI82
aI82
aI82
aI82
aI82
aI82
aI82
aI82
aI79
aI82
aI45
aI63
aI82
aI82
aI82
aI47
aI82
aI82
aI82
aI82
aI40
aI74
aI82
aI82
aI82
aI82
aI82
aI82
aI80
aI71
aI71
aI71
aI84
aI70
aI85
aI81
aI45
aI82
aI82
aI82
aI82
aI39
aI82
aI47
aI82
aI82
aI65
aI82
aI137
aI71
aI71
aI56
aI71
aI84
aI71
aI82
aI82
aI82
aI82
aI82
aI82
aI44
aI69
aI82
aI82
aI82
aI82
aI82
aI82
aI82
aI82
aI82
aI67
aI43
aI71
aI54
aI86
aI82
aI83
aI82
aI82
aI82
aI83
aI82
aI82
aI82
aI82
aI82
aI82
aI82
aI82
aI82
aI82
aI82
aI82
aI39
aI82
aI82
aI67
aI71
aI79
aI71
aI83
aI82
aI82
aI82
aI82
aI82
aI45
aI82
aI82
aI58
aI82
aI82
aI82
aI43
aI82
aI82
aI82
aI82
aI82
aI82
aI82
aI80
aI71
aI118
aI71
aI56
aI67
aI83
aI83
aI71
aI83
aI84
aI71
aI71
aI71
aI54
aI83
aI80
aI71
aI43
aI49
aI84
aI82
aI71
aI71
aI71
aI71
aI71
aI83
aI71
aI54
aI82
aI82
aI61
aI71
aI43
aI83
aI71
aI83
aI100
aI65
aI83
aI71
aI82
aI71
aI82
aI71
aI47
aI82
aI83
aI82
aI83
aI71
aI71
aI71
aI82
aI54
aI66
aI82
aI82
aI47
aI81
aI74
aI81
aI81
aI81
aI81
aI81
aI81
aI81
aI81
aI81
aI81
aI81
aI45
aI81
aI81
aI81
aI81
aI82
aI74
aI63
aI82
aI82
aI82
aI45
aI71
aI82
aI71
aI82
aI41
aI71
aI71
aI39
aI45
aI82
aI82
aI82
aI71
aI74
aI82
aI83
aI82
aI82
aI82
aI82
aI52
aI82
aI61
aI82
aI82
aI85
aI82
aI82
aI82
aI82
aI82
aI82
aI82
aI82
aI82
aI39
aI82
aI56
aI82
aI82
aI82
aI52
aI58
aI81
aI82
aI82
aI82
aI83
aI65
aI82
aI82
aI48
aI67
aI82
aI82
aI52
aI82
aI69
aI82
aI82
aI82
aI82
aI46
aI46
aI56
aI82
aI82
aI82
aI82
aI82
aI82
aI82
aI41
aI71
aI82
aI82
aI54
aI52
aI82
aI82
aI82
aI82
aI82
aI61
aI65
aI83
aI83
aI82
aI82
aI82
aI82
aI82
aI82
aI82
aI82
aI82
aI83
aI83
aI88
aI71
aI71
aI45
aI71
aI71
aI71
aI71
aI69
aI71
aI71
aI52
aI71
aI71
aI39
aI71
aI87
aI70
aI82
aI82
aI82
aI82
aI82
aI52
aI58
aI71
aI52
aI84
aI53
aI82
aI81
aI82
aI82
aI67
aI71
aI71
aI70
aI82
aI82
aI82
aI82
aI82
aI82
aI82
aI82
aI82
aI44
aI82
aI82
aI82
aI71
aI83
aI82
aI82
aI82
aI48
aI114
aI82
aI65
aI43
aI82
aI82
aI82
aI48
aI40
aI81
aI55
aI81
aI81
aI81
aI69
aI43
aI81
aI81
aI54
aI81
aI43
aI81
aI49
aI81
aI54
aI47
aI81
aI47
aI81
aI81
aI81
aI81
aI81
aI82
aI81
aI81
aI66
aI71
aI71
aI71
aI71
aI85
aI69
aI71
aI71
aI52
aI39
aI82
aI71
aI71
aI71
aI71
aI71
aI71
aI40
aI40
aI71
aI71
aI71
aI71
aI71
aI88
aI71
aI45
aI71
aI71
aI71
aI43
aI71
aI71
aI71
aI71
aI39
aI71
aI71
aI71
aI71
aI71
aI71
aI71
aI61
aI71
aI71
aI52
aI71
aI71
aI71
aI54
aI71
aI72
aI71
aI85
aI82
aI52
aI82
aI82
aI82
aI82
aI82
aI82
aI82
aI82
aI57
aI56
aI82
aI46
aI82
aI82
aI82
aI82
aI82
aI82
aI82
aI82
aI82
aI82
aI82
aI58
aI82
aI82
aI82
aI82
aI39
aI82
aI52
aI67
aI83
aI82
aI67
aI82
aI82
aI82
aI82
aI82
aI82
aI82
aI82
aI82
aI82
aI84
aI71
aI71
aI71
aI71
aI65
aI71
aI71
aI71
aI39
aI50
aI71
aI71
aI71
aI71
aI71
aI79
aI71
aI80
aI71
aI71
aI63
aI71
aI73
aI71
aI71
aI65
aI82
aI71
aI71
aI71
aI71
aI71
aI67
aI63
aI72
aI71
aI81
aI71
aI71
aI71
aI71
aI71
aI71
aI71
aI81
aI48
aI71
aI71
aI71
aI71
aI71
aI71
aI71
aI63
aI71
aI71
aI71
aI71
aI71
aI71
aI71
aI71
aI71
aI71
aI73
aI71
aI71
aI71
aI71
aI67
aI70
aI71
aI71
aI49
aI54
aI71
aI71
aI116
aI50
aI71
aI71
aI71
aI71
aI52
aI71
aI48
aI82
aI71
aI43
aI57
aI54
aI83
aI90
aI71
aI71
aI71
aI71
aI47
aI71
aI71
aI69
aI71
aI71
aI71
aI71
aI71
aI55
aI71
aI73
aI48
aI79
aI43
aI71
aI71
aI43
aI71
aI82
aI71
aI71
aI71
aI88
aI124
aI71
aI71
aI71
aI58
aI71
aI71
aI71
aI71
aI71
aI71
aI65
aI71
aI71
aI71
aI71
aI71
aI71
aI71
aI71
aI69
aI71
aI71
aI39
aI71
aI71
aI118
aI43
aI56
aI71
aI71
aI65
aI71
aI71
aI56
aI46
aI46
aI71
aI71
aI71
aI71
aI71
aI71
aI71
aI71
aI55
aI46
aI71
aI67
aI63
aI71
aI71
aI71
aI65
aI71
aI71
aI71
aI39
aI61
aI71
aI71
aI71
aI71
aI71
aI71
aI67
aI84
aI71
aI70
aI71
aI71
aI58
aI71
aI71
aI43
aI71
aI71
aI82
aI71
aI71
aI43
aI69
aI71
aI71
aI71
aI73
aI71
aI71
aI71
aI56
aI71
aI71
aI71
aI71
aI71
aI71
aI71
aI71
aI47
aI61
aI71
aI71
aI71
aI56
aI71
aI71
aI71
aI71
aI71
aI52
aI71
aI85
aI71
aI69
aI39
aI71
aI43
aI71
aI71
aI71
aI71
aI71
aI71
aI71
aI85
aI71
aI71
aI71
aI71
aI71
aI71
aI71
aI71
aI71
aI71
aI71
aI71
aI65
aI58
aI77
aI82
aI84
aI52
aI71
aI71
aI71
aI61
aI71
aI71
aI71
aI71
aI71
aI47
aI71
aI55
aI71
aI71
aI71
aI71
aI71
aI71
aI71
aI48
aI82
aI74
aI71
aI71
aI71
aI71
aI71
aI85
aI71
aI48
aI57
aI71
aI71
aI71
aI70
aI69
aI71
aI71
aI71
aI71
aI70
aI39
aI71
aI39
aI71
aI65
aI71
aI70
aI70
aI71
aI57
aI71
aI71
aI71
aI71
aI82
aI71
aI71
aI71
aI71
aI85
aI71
aI71
aI71
aI71
aI71
aI71
aI71
aI71
aI65
aI39
aI73
aI71
aI71
aI81
aI71
aI71
aI71
aI71
aI71
aI81
aI71
aI71
aI71
aI41
aI71
aI65
aI71
aI44
aI71
aI70
aI39
aI56
aI71
aI71
aI71
aI71
aI71
aI73
aI71
aI71
aI71
aI71
aI64
aI71
aI85
aI71
aI69
aI71
aI71
aI67
aI39
aI71
aI71
aI71
aI73
aI71
aI71
aI71
aI71
aI71
aI71
aI71
aI71
aI71
aI69
aI71
aI71
aI71
aI52
aI71
aI71
aI71
aI71
aI71
aI71
aI71
aI71
aI52
aI71
aI71
aI71
aI71
aI49
aI71
aI71
aI71
aI71
aI71
aI71
aI71
aI71
aI71
aI71
aI71
aI47
aI71
aI71
aI71
aI71
aI69
aI71
aI71
aI54
aI71
aI71
aI71
aI88
aI71
aI71
aI71
aI83
aI71
aI137
aI71
aI71
aI70
aI71
aI43
aI71
aI71
aI71
aI71
aI71
aI71
aI52
aI71
aI71
aI71
aI71
aI85
aI71
aI83
aI71
aI88
aI71
aI71
aI71
aI82
aI71
aI71
aI71
aI71
aI39
aI71
aI71
aI77
aI71
aI83
aI71
aI56
aI47
aI134
aI71
aI84
aI39
aI71
aI71
aI71
aI71
aI71
aI71
aI71
aI71
aI71
aI52
aI84
aI83
aI71
aI71
aI71
aI71
aI71
aI71
aI52
aI82
aI69
aI54
aI52
aI71
aI65
aI71
aI71
aI71
aI80
aI71
aI71
aI134
aI71
aI71
aI71
aI71
aI71
aI71
aI64
aI71
aI82
aI71
aI71
aI71
aI71
aI71
aI64
aI71
aI71
aI71
aI69
aI71
aI71
aI50
aI71
aI71
aI84
aI71
aI71
aI71
aI39
aI71
aI55
aI71
aI83
aI90
aI57
aI82
aI82
aI83
aI84
aI71
aI52
aI71
aI71
aI52
aI84
aI83
aI71
aI67
aI83
aI71
aI84
aI84
aI71
aI71
aI56
aI84
aI71
aI69
aI56
aI69
aI81
aI71
aI43
aI71
aI82
aI71
aI88
aI71
aI71
aI71
aI71
aI69
aI71
aI71
aI71
aI71
aI71
aI71
aI84
aI44
aI71
aI71
aI71
aI71
aI69
aI84
aI50
aI84
aI71
aI71
aI71
aI71
aI84
aI71
aI84
aI71
aI71
aI84
aI71
aI71
aI83
aI58
aI47
aI83
aI82
aI82
aI82
aI67
aI82
aI82
aI52
aI82
aI43
aI82
aI82
aI82
aI71
aI46
aI118
aI71
aI48
aI82
aI82
aI82
aI56
aI82
aI82
aI82
aI82
aI84
aI84
aI84
aI71
aI84
aI71
aI84
aI58
aI71
aI71
aI83
aI71
aI101
aI82
aI82
aI82
aI82
aI67
aI84
aI39
aI39
aI47
aI82
aI82
aI45
aI82
aI82
aI55
aI82
aI82
aI82
aI57
aI82
aI82
aI82
aI82
aI82
aI83
aI84
aI39
aI71
aI84
aI84
aI41
aI56
aI84
aI71
aI84
aI71
aI71
aI84
aI71
aI84
aI71
aI84
aI71
aI84
aI71
aI61
aI83
aI83
aI83
aI82
aI82
aI83
aI83
aI82
aI55
aI82
aI82
aI83
aI44
aI39
aI84
aI84
aI71
aI84
aI71
aI84
aI85
aI65
aI82
aI83
aI83
aI83
aI74
aI47
aI82
aI82
aI80
aI46
aI71
aI71
aI84
aI71
aI84
aI71
aI71
aI82
aI114
aI84
aI71
aI85
aI82
aI67
aI83
aI83
aI83
aI83
aI83
aI83
aI83
aI83
aI83
aI83
aI83
aI83
aI83
aI82
aI82
aI82
aI82
aI82
aI79
aI82
aI82
aI82
aI82
aI82
aI82
aI54
aI82
aI82
aI82
aI82
aI82
aI82
aI82
aI82
aI82
aI82
aI82
aI82
aI54
aI83
aI83
aI82
aI82
aI82
aI39
aI83
aI83
aI83
aI83
aI39
aI83
aI83
aI39
aI82
aI82
aI39
aI83
aI83
aI83
aI82
aI82
aI82
aI118
aI84
aI84
aI71
aI84
aI84
aI71
aI83
aI71
aI83
aI71
aI83
aI52
aI82
aI65
aI83
aI84
aI84
aI84
aI54
aI83
aI82
aI82
aI82
aI82
aI82
aI82
aI82
aI82
aI82
aI82
aI82
aI82
aI82
aI56
aI82
aI82
aI85
aI82
aI83
aI82
aI43
aI82
aI82
aI82
aI82
aI82
aI48
aI82
aI82
aI67
aI56
aI82
aI82
aI82
aI82
aI61
aI83
aI82
aI82
aI82
aI82
aI82
aI63
aI47
aI65
aI61
aI82
aI82
aI39
aI71
aI71
aI71
aI65
aI52
aI82
aI52
aI82
aI82
aI83
aI82
aI84
aI71
aI71
aI84
aI41
aI71
aI39
aI39
aI79
aI69
aI83
aI83
aI45
aI67
aI67
aI43
aI82
aI82
aI82
aI82
aI85
aI82
aI82
aI82
aI82
aI81
aI82
aI82
aI54
aI82
aI82
aI40
aI82
aI82
aI82
aI63
aI82
aI83
aI84
aI71
aI71
aI71
aI71
aI71
aI69
aI71
aI46
aI71
aI63
aI71
aI71
aI71
aI52
aI71
aI85
aI71
aI67
aI71
aI71
aI71
aI71
aI71
aI71
aI71
aI56
aI63
aI69
aI71
aI71
aI71
aI70
aI71
aI71
aI44
aI71
aI71
aI71
aI71
aI71
aI71
aI85
aI71
aI71
aI71
aI88
aI67
aI71
aI71
aI43
aI71
aI82
aI71
aI71
aI71
aI71
aI71
aI71
aI71
aI83
aI46
aI71
aI52
aI71
aI71
aI118
aI71
aI71
aI71
aI71
aI57
aI52
aI71
aI71
aI71
aI81
aI71
aI71
aI71
aI81
aI63
aI56
aI47
aI71
aI71
aI71
aI71
aI39
aI71
aI71
aI47
aI69
aI71
aI71
aI71
aI71
aI71
aI71
aI71
aI71
aI71
aI71
aI71
aI71
aI71
aI73
aI71
aI71
aI71
aI71
aI88
aI71
aI69
aI71
aI71
aI71
aI71
aI52
aI71
aI71
aI71
aI71
aI44
aI71
aI71
aI71
aI71
aI71
aI71
aI67
aI71
aI71
aI71
aI71
aI46
aI71
aI71
aI55
aI71
aI71
aI71
aI52
aI71
aI71
aI47
aI71
aI69
aI71
aI71
aI71
aI71
aI71
aI71
aI71
aI71
aI71
aI71
aI71
aI71
aI52
aI71
aI71
aI71
aI71
aI71
aI71
aI71
aI56
aI71
aI71
aI70
aI71
aI71
aI71
aI71
aI61
aI70
aI71
aI71
aI71
aI71
aI71
aI71
aI85
aI71
aI54
aI71
aI88
aI43
aI71
aI71
aI69
aI71
aI71
aI39
aI64
aI71
aI71
aI67
aI71
aI54
aI71
aI56
aI71
aI71
aI39
aI71
aI48
aI40
aI71
aI71
aI71
aI71
aI71
aI54
aI39
aI71
aI71
aI71
aI71
aI71
aI69
aI71
aI71
aI71
aI71
aI71
aI47
aI39
aI71
aI71
aI71
aI71
aI81
aI81
aI70
aI65
aI71
aI84
aI65
aI71
aI71
aI71
aI71
aI71
aI71
aI71
aI71
aI71
aI71
aI71
aI69
aI71
aI71
aI71
aI71
aI71
aI71
aI71
aI71
aI71
aI85
aI71
aI71
aI71
aI65
aI71
aI71
aI71
aI71
aI88
aI71
aI54
aI69
aI71
aI85
aI47
aI71
aI71
aI71
aI71
aI39
aI71
aI52
aI71
aI71
aI71
aI71
aI61
aI71
aI71
aI71
aI71
aI71
aI71
aI71
aI65
aI47
aI88
aI71
aI71
aI81
aI71
aI71
aI71
aI71
aI71
aI71
aI74
aI71
aI71
aI71
aI71
aI71
aI82
aI71
aI62
aI71
aI71
aI71
aI71
aI72
aI54
aI71
aI71
aI71
aI71
aI81
aI118
aI48
aI71
aI71
aI71
aI71
aI71
aI61
aI71
aI71
aI71
aI39
aI71
aI71
aI52
aI71
aI71
aI71
aI71
aI85
aI71
aI71
aI71
aI71
aI43
aI71
aI71
aI71
aI71
aI71
aI52
aI71
aI71
aI71
aI71
aI82
aI70
aI134
aI84
aI71
aI83
aI71
aI71
aI71
aI71
aI71
aI71
aI71
aI82
aI71
aI71
aI71
aI71
aI82
aI71
aI71
aI65
aI69
aI71
aI82
aI71
aI71
aI71
aI52
aI82
aI71
aI71
aI71
aI71
aI73
aI82
aI71
aI84
aI71
aI71
aI71
aI39
aI65
aI71
aI71
aI50
aI71
aI82
aI107
aI71
aI71
aI43
aI71
aI71
aI69
aI71
aI52
aI71
aI71
aI71
aI71
aI71
aI71
aI71
aI71
aI118
aI71
aI71
aI71
aI71
aI71
aI71
aI82
aI71
aI71
aI71
aI71
aI71
aI71
aI71
aI71
aI71
aI71
aI71
aI70
aI84
aI58
aI46
aI71
aI69
aI71
aI39
aI71
aI71
aI71
aI71
aI71
aI71
aI71
aI71
aI74
aI83
aI56
aI71
aI56
aI55
aI48
aI82
aI82
aI44
aI64
aI82
aI82
aI82
aI82
aI82
aI82
aI82
aI84
aI84
aI84
aI84
aI71
aI40
aI84
aI71
aI84
aI55
aI84
aI84
aI84
aI71
aI84
aI66
aI82
aI82
aI83
aI52
aI82
aI82
aI82
aI82
aI82
aI82
aI69
aI46
aI88
aI84
aI84
aI84
aI84
aI43
aI84
aI48
aI82
aI47
aI67
aI82
aI82
aI82
aI82
aI40
aI82
aI82
aI82
aI47
aI82
aI82
aI82
aI39
aI82
aI82
aI84
aI84
aI84
aI71
aI84
aI71
aI84
aI71
aI84
aI85
aI82
aI83
aI82
aI82
aI82
aI82
aI67
aI82
aI82
aI82
aI82
aI82
aI82
aI45
aI82
aI82
aI82
aI80
aI71
aI71
aI71
aI71
aI84
aI71
aI84
aI43
aI71
aI61
aI82
aI71
aI71
aI39
aI84
aI52
aI84
aI67
aI48
aI74
aI71
aI71
aI82
aI66
aI56
aI82
aI82
aI82
aI82
aI82
aI82
aI82
aI82
aI82
aI82
aI82
aI40
aI82
aI82
aI56
aI82
aI84
aI71
aI82
aI82
aI82
aI82
aI82
aI82
aI82
aI82
aI40
aI82
aI43
aI82
aI83
aI83
aI82
aI47
aI82
aI82
aI82
aI63
aI82
aI82
aI82
aI82
aI82
aI43
aI82
aI156
aI82
aI61
aI83
aI83
aI71
aI83
aI71
aI83
aI39
aI83
aI83
aI71
aI83
aI83
aI82
aI82
aI54
aI57
aI82
aI82
aI82
aI82
aI82
aI82
aI83
aI71
aI71
aI63
aI82
aI82
aI82
aI82
aI66
aI82
aI46
aI82
aI82
aI82
aI82
aI82
aI82
aI80
aI71
aI71
aI71
aI71
aI71
aI71
aI71
aI82
aI71
aI71
aI71
aI71
aI71
aI71
aI83
aI71
aI71
aI43
aI48
aI82
aI82
aI82
aI82
aI83
aI71
aI44
aI71
aI55
aI71
aI82
aI82
aI82
aI71
aI82
aI82
aI40
aI82
aI82
aI43
aI82
aI83
aI82
aI82
aI82
aI47
aI82
aI82
aI82
aI82
aI82
aI82
aI82
aI82
aI82
aI82
aI67
aI55
aI71
aI45
aI71
aI52
aI71
aI84
aI84
aI40
aI84
aI84
aI84
aI84
aI84
aI84
aI83
aI82
aI54
aI82
aI82
aI82
aI82
aI82
aI82
aI82
aI55
aI82
aI82
aI56
aI83
aI82
aI82
aI82
aI43
aI71
aI67
aI71
aI48
aI82
aI82
aI82
aI82
aI82
aI82
aI82
aI82
aI83
aI71
aI39
aI71
aI82
aI84
aI81
aI82
aI82
aI82
aI82
aI82
aI82
aI82
aI82
aI48
aI82
aI82
aI82
aI82
aI67
aI39
aI82
aI82
aI82
aI82
aI82
aI82
aI82
aI82
aI82
aI82
aI80
aI71
aI71
aI80
aI71
aI71
aI71
aI71
aI71
aI65
aI83
aI82
aI82
aI83
aI82
aI83
aI83
aI65
aI82
aI82
aI56
aI82
aI82
aI82
aI82
aI48
aI54
aI67
aI67
aI82
aI82
aI82
aI82
aI82
aI82
aI82
aI82
aI82
aI82
aI82
aI82
aI82
aI56
aI82
aI82
aI82
aI82
aI58
aI84
aI84
aI47
aI84
aI84
aI84
aI84
aI71
aI82
aI82
aI82
aI82
aI82
aI82
aI45
aI82
aI71
aI82
aI82
aI82
aI56
aI82
aI82
aI82
aI69
aI82
aI82
aI82
aI67
aI71
aI44
aI71
aI71
aI82
aI82
aI82
aI67
aI82
aI82
aI82
aI82
aI82
aI82
aI82
aI82
aI82
aI82
aI82
aI66
aI82
aI82
aI82
aI44
aI82
aI82
aI82
aI82
aI82
aI82
aI82
aI82
aI82
aI67
aI43
aI71
aI71
aI84
aI84
aI71
aI82
aI82
aI80
aI46
aI82
aI41
aI114
aI82
aI82
aI82
aI39
aI48
aI61
aI82
aI82
aI82
aI82
aI82
aI55
aI81
aI81
aI81
aI44
aI79
aI39
aI81
aI48
aI46
aI39
aI81
aI65
aI81
aI81
aI81
aI81
aI56
aI81
aI81
aI81
aI81
aI81
aI81
aI81
aI73
aI56
aI81
aI81
aI81
aI83
aI81
aI81
aI56
aI81
aI81
aI39
aI81
aI81
aI81
aI81
aI81
aI81
aI81
aI82
aI81
aI57
aI61
aI81
aI81
aI81
aI81
aI81
aI81
aI81
aI81
aI81
aI81
aI81
aI81
aI81
aI82
aI81
aI81
aI65
aI81
aI81
aI61
aI81
aI81
aI52
aI48
aI52
aI81
aI69
aI81
aI81
aI81
aI81
aI73
aI81
aI81
aI81
aI81
aI81
aI52
aI81
aI81
aI81
aI47
aI81
aI80
aI81
aI81
aI81
aI81
aI81
aI81
aI82
aI81
aI81
aI81
aI67
aI82
aI71
aI82
aI71
aI82
aI83
aI83
aI83
aI83
aI80
aI71
aI71
aI71
aI71
aI71
aI82
aI71
aI82
aI71
aI82
aI69
aI82
aI82
aI82
aI82
aI71
aI82
aI81
aI82
aI82
aI82
aI61
aI82
aI82
aI82
aI82
aI82
aI82
aI82
aI82
aI82
aI63
aI82
aI39
aI82
aI82
aI82
aI82
aI82
aI82
aI82
aI82
aI71
aI82
aI82
aI82
aI137
aI71
aI71
aI71
aI71
aI71
aI88
aI71
aI71
aI71
aI71
aI71
aI71
aI52
aI66
aI71
aI71
aI48
aI82
aI82
aI65
aI82
aI85
aI82
aI67
aI43
aI61
aI71
aI69
aI43
aI71
aI71
aI71
aI71
aI71
aI118
aI71
aI71
aI71
aI84
aI71
aI71
aI82
aI82
aI82
aI82
aI82
aI114
aI71
aI85
aI39
aI82
aI82
aI82
aI82
aI82
aI82
aI52
aI82
aI82
aI82
aI81
aI82
aI82
aI82
aI52
aI82
aI82
aI82
aI82
aI54
aI82
aI82
aI82
aI82
aI82
aI82
aI82
aI82
aI82
aI82
aI82
aI43
aI82
aI82
aI82
aI82
aI82
aI82
aI43
aI82
aI82
aI82
aI82
aI82
aI82
aI39
aI82
aI43
aI82
aI81
aI54
aI82
aI82
aI82
aI82
aI82
aI82
aI82
aI82
aI82
aI82
aI39
aI82
aI82
aI82
aI82
aI82
aI82
aI82
aI82
aI82
aI82
aI65
aI82
aI82
aI58
aI82
aI82
aI82
aI52
aI80
aI83
aI118
aI71
aI71
aI43
aI83
aI71
aI83
aI82
aI83
aI83
aI83
aI83
aI83
aI83
aI61
aI71
aI83
aI83
aI54
aI83
aI74
aI83
aI83
aI83
aI69
aI81
aI71
aI71
aI71
aI71
aI71
aI71
aI71
aI71
aI46
aI71
aI71
aI71
aI71
aI71
aI71
aI71
aI71
aI71
aI71
aI83
aI71
aI83
aI71
aI83
aI71
aI49
aI48
aI82
aI56
aI82
aI83
aI73
aI82
aI52
aI82
aI65
aI82
aI82
aI83
aI83
aI69
aI61
aI118
aI71
aI71
aI71
aI71
aI71
aI71
aI71
aI72
aI71
aI71
aI71
aI134
aI39
aI83
aI67
aI45
aI71
aI71
aI71
aI52
aI71
aI71
aI71
aI71
aI71
aI71
aI71
aI71
aI71
aI67
aI71
aI72
aI71
aI71
aI55
aI71
aI71
aI71
aI71
aI71
aI71
aI71
aI72
aI71
aI52
aI71
aI71
aI71
aI39
aI71
aI69
aI58
aI71
aI70
aI58
aI71
aI39
aI71
aI71
aI71
aI71
aI71
aI71
aI71
aI71
aI39
aI57
aI71
aI71
aI82
aI71
aI71
aI71
aI71
aI71
aI71
aI58
aI73
aI54
aI82
aI52
aI84
aI71
aI79
aI83
aI71
aI45
aI83
aI71
aI71
aI71
aI45
aI71
aI71
aI71
aI69
aI71
aI71
aI71
aI48
aI83
aI71
aI71
aI71
aI57
aI71
aI71
aI71
aI71
aI58
aI71
aI71
aI71
aI133
aI71
aI71
aI71
aI71
aI71
aI83
aI71
aI71
aI71
aI71
aI71
aI65
aI80
aI43
aI71
aI71
aI71
aI71
aI43
aI71
aI71
aI71
aI71
aI43
aI58
aI71
aI82
aI83
aI71
aI71
aI71
aI71
aI74
aI81
aI69
aI71
aI71
aI71
aI71
aI71
aI71
aI71
aI71
aI71
aI71
aI71
aI47
aI71
aI71
aI71
aI79
aI71
aI82
aI39
aI71
aI47
aI71
aI71
aI71
aI71
aI71
aI83
aI69
aI81
aI71
aI71
aI71
aI71
aI118
aI71
aI71
aI71
aI71
aI71
aI71
aI71
aI71
aI71
aI71
aI39
aI71
aI71
aI71
aI71
aI71
aI71
aI71
aI71
aI71
aI45
aI61
aI71
aI71
aI71
aI71
aI71
aI63
aI82
aI54
aI82
aI137
aI71
aI71
aI71
aI71
aI71
aI48
aI71
aI71
aI71
aI71
aI71
aI71
aI71
aI71
aI70
aI63
aI82
aI84
aI65
aI71
aI71
aI71
aI71
aI71
aI71
aI71
aI71
aI71
aI71
aI71
aI71
aI71
aI71
aI43
aI71
aI52
aI71
aI52
aI71
aI71
aI43
aI71
aI81
aI71
aI71
aI84
aI71
aI69
aI71
aI67
aI71
aI71
aI71
aI71
aI71
aI71
aI71
aI71
aI83
aI70
aI71
aI52
aI71
aI39
aI71
aI71
aI71
aI90
aI71
aI71
aI71
aI69
aI71
aI66
aI71
aI71
aI71
aI71
aI71
aI71
aI71
aI71
aI71
aI49
aI43
aI71
aI71
aI71
aI71
aI71
aI48
aI71
aI71
aI71
aI71
aI71
aI71
aI71
aI72
aI54
aI71
aI71
aI71
aI55
aI71
aI71
aI56
aI71
aI71
aI71
aI71
aI43
aI69
aI65
aI71
aI71
aI71
aI71
aI52
aI82
aI56
aI48
aI71
aI71
aI71
aI61
aI71
aI71
aI71
aI65
aI71
aI61
aI65
aI85
aI71
aI58
aI47
aI118
aI47
aI71
aI71
aI71
aI52
aI71
aI88
aI71
aI71
aI71
aI71
aI71
aI71
aI70
aI82
aI84
aI71
aI61
aI71
aI71
aI71
aI71
aI71
aI84
aI71
aI71
aI54
aI71
aI66
aI39
aI81
aI81
aI81
aI81
aI81
aI52
aI43
aI81
aI48
aI81
aI81
aI81
aI52
aI81
aI81
aI43
aI82
aI44
aI71
aI82
aI82
aI84
aI71
aI71
aI71
aI47
aI82
aI84
aI72
aI71
aI71
aI90
aI83
aI71
aI71
aI66
aI61
aI81
aI81
aI81
aI81
aI81
aI81
aI81
aI82
aI43
aI82
aI82
aI71
aI68
aI71
aI71
aI71
aI82
aI60
aI39
aI82
aI52
aI82
aI82
aI39
aI52
aI118
aI71
aI71
aI71
aI71
aI84
aI52
aI71
aI82
aI71
aI71
aI73
aI82
aI82
aI82
aI82
aI82
aI82
aI46
aI45
aI82
aI82
aI47
aI82
aI88
aI71
aI82
aI71
aI70
aI74
aI65
aI83
aI67
aI69
aI56
aI71
aI71
aI71
aI71
aI71
aI71
aI71
aI71
aI71
aI49
aI83
aI71
aI71
aI71
aI82
aI71
aI71
aI71
aI71
aI71
aI71
aI81
aI82
aI67
aI57
aI82
aI48
aI55
aI81
aI48
aI81
aI81
aI81
aI81
aI52
aI81
aI39
aI81
aI81
aI43
aI81
aI81
aI118
aI81
aI81
aI69
aI63
aI84
aI71
aI71
aI71
aI71
aI73
aI71
aI71
aI71
aI71
aI71
aI66
aI71
aI71
aI71
aI71
aI71
aI71
aI71
aI67
aI71
aI71
aI83
aI71
aI71
aI134
aI65
aI71
aI47
aI48
aI71
aI56
aI71
aI71
aI71
aI71
aI71
aI71
aI67
aI71
aI71
aI71
aI71
aI71
aI71
aI67
aI71
aI71
aI52
aI82
aI71
aI71
aI54
aI58
aI52
aI71
aI70
aI52
aI64
aI71
aI71
aI71
aI71
aI134
aI71
aI71
aI71
aI73
aI71
aI71
aI71
aI57
aI71
aI58
aI71
aI79
aI71
aI71
aI71
aI71
aI71
aI52
aI71
aI71
aI71
aI71
aI52
aI71
aI71
aI52
aI79
aI71
aI82
aI71
aI84
aI71
aI55
aI52
aI82
aI82
aI67
aI71
aI71
aI71
aI71
aI71
aI92
aI82
aI82
aI80
aI83
aI71
aI80
aI71
aI71
aI55
aI71
aI71
aI56
aI73
aI82
aI52
aI95
aI57
aI82
aI82
aI82
aI83
aI55
aI82
aI82
aI82
aI82
aI114
aI71
aI82
aI82
aI43
aI83
aI85
aI71
aI71
aI71
aI71
aI71
aI58
aI83
aI83
aI57
aI82
aI82
aI82
aI153
aI71
aI71
aI65
aI71
aI61
aI73
aI82
aI82
aI47
aI81
aI81
aI81
aI81
aI82
aI81
aI81
aI81
aI81
aI56
aI65
aI81
aI81
aI81
aI81
aI81
aI81
aI81
aI88
aI82
aI82
aI82
aI82
aI82
aI82
aI82
aI82
aI82
aI71
aI48
aI124
aI82
aI54
aI82
aI82
aI82
aI82
aI82
aI82
aI82
aI64
aI66
aI71
aI46
aI71
aI71
aI71
aI71
aI71
aI71
aI71
aI71
aI71
aI71
aI71
aI71
aI71
aI89
aI71
aI71
aI71
aI71
aI55
aI82
aI56
aI82
aI82
aI82
aI82
aI82
aI82
aI82
aI82
aI82
aI47
aI81
aI39
aI81
aI81
aI81
aI66
aI82
aI82
aI82
aI82
aI67
aI47
aI71
aI64
aI71
aI85
aI83
aI71
aI71
aI71
aI71
aI71
aI71
aI52
aI52
aI71
aI71
aI45
aI71
aI71
aI71
aI71
aI46
aI71
aI71
aI63
aI71
aI71
aI65
aI71
aI71
aI62
aI79
aI71
aI39
aI85
aI73
aI71
aI82
aI65
aI82
aI82
aI67
aI82
aI71
aI82
aI82
aI52
aI82
aI71
aI82
aI57
aI82
aI52
aI82
aI67
aI82
aI82
aI82
aI137
aI71
aI71
aI71
aI83
aI73
aI83
aI71
aI82
aI56
aI54
aI71
aI82
aI83
aI83
aI82
aI57
aI83
aI57
aI82
aI82
aI82
aI81
aI81
aI41
aI81
aI56
aI81
aI43
aI81
aI60
aI81
aI81
aI82
aI81
aI41
aI81
aI81
aI81
aI56
aI82
aI82
aI82
aI54
aI52
aI82
aI82
aI82
aI45
aI55
aI82
aI82
aI82
aI82
aI82
aI56
aI82
aI82
aI82
aI82
aI82
aI82
aI82
aI82
aI82
aI55
aI46
aI82
aI43
aI82
aI82
aI82
aI79
aI82
aI71
aI82
aI82
aI39
aI82
aI82
aI82
aI82
aI82
aI82
aI82
aI82
aI82
aI82
aI82
aI82
aI66
aI81
aI81
aI81
aI81
aI81
aI81
aI66
aI82
aI76
aI71
aI82
aI82
aI82
aI82
aI82
aI82
aI82
aI82
aI82
aI82
aI73
aI82
aI82
aI82
aI69
aI71
aI71
aI71
aI71
aI82
aI82
aI82
aI82
aI82
aI82
aI54
aI54
aI82
aI83
aI82
aI82
aI71
aI82
aI82
aI82
aI82
aI43
aI82
aI82
aI82
aI47
aI82
aI82
aI82
aI82
aI82
aI82
aI82
aI82
aI82
aI82
aI82
aI82
aI56
aI82
aI82
aI82
aI82
aI82
aI67
aI71
aI71
aI71
aI65
aI71
aI71
aI71
aI71
aI70
aI82
aI82
aI82
aI82
aI82
aI82
aI55
aI82
aI82
aI82
aI82
aI82
aI82
aI82
aI82
aI82
aI82
aI82
aI82
aI82
aI82
aI82
aI82
aI82
aI82
aI82
aI82
aI82
aI52
aI82
aI82
aI45
aI82
aI82
aI82
aI114
aI71
aI82
aI82
aI71
aI82
aI82
aI82
aI82
aI82
aI47
aI124
aI82
aI66
aI71
aI71
aI71
aI71
aI71
aI71
aI82
aI71
aI82
aI82
aI82
aI82
aI82
aI63
aI57
aI73
aI82
aI82
aI56
aI82
aI82
aI82
aI82
aI65
aI82
aI82
aI82
aI82
aI82
aI82
aI82
aI82
aI82
aI66
aI81
aI41
aI82
aI74
aI82
aI82
aI82
aI82
aI82
aI82
aI82
aI49
aI82
aI82
aI82
aI82
aI82
aI82
aI82
aI70
aI71
aI71
aI71
aI46
aI70
aI82
aI82
aI82
aI82
aI82
aI82
aI48
aI46
aI48
aI81
aI81
aI81
aI63
aI81
aI81
aI81
aI65
aI81
aI81
aI81
aI81
aI81
aI81
aI81
aI81
aI81
aI134
aI44
aI71
aI71
aI48
aI82
aI82
aI82
aI63
aI83
aI71
aI71
aI71
aI61
aI71
aI73
aI82
aI63
aI82
aI82
aI82
aI82
aI82
aI82
aI82
aI82
aI46
aI44
aI82
aI82
aI82
aI83
aI52
aI71
aI88
aI82
aI57
aI82
aI82
aI82
aI49
aI44
aI65
aI82
aI71
aI82
aI82
aI41
aI82
aI82
aI56
aI82
aI47
aI81
aI81
aI39
aI81
aI81
aI81
aI81
aI81
aI81
aI81
aI49
aI134
aI71
aI43
aI71
aI67
aI71
aI73
aI71
aI50
aI82
aI55
aI81
aI81
aI43
aI81
aI81
aI81
aI81
aI43
aI81
aI82
aI71
aI82
aI71
aI82
aI82
aI82
aI82
aI82
aI82
aI82
aI82
aI82
aI82
aI83
aI71
aI71
aI57
aI82
aI82
aI82
aI82
aI82
aI73
aI45
aI82
aI82
aI82
aI82
aI82
aI82
aI82
aI82
aI78
aI82
aI56
aI47
aI49
aI81
aI81
aI81
aI81
aI61
aI81
aI81
aI81
aI81
aI82
aI82
aI82
aI82
aI82
aI82
aI82
aI82
aI69
aI71
aI81
aI71
aI48
aI71
aI71
aI82
aI82
aI82
aI61
aI82
aI82
aI82
aI41
aI39
aI71
aI71
aI71
aI71
aI71
aI71
aI114
aI82
aI70
aI39
aI82
aI61
aI82
aI52
aI73
aI81
aI81
aI81
aI81
aI81
aI81
aI81
aI81
aI66
aI82
aI82
aI82
aI82
aI64
aI81
aI81
aI81
aI56
aI81
aI69
aI118
aI82
aI82
aI82
aI82
aI82
aI82
aI82
aI82
aI82
aI82
aI82
aI82
aI54
aI82
aI82
aI82
aI82
aI82
aI82
aI82
aI82
aI81
aI82
aI82
aI82
aI82
aI82
aI82
aI82
aI82
aI82
aI41
aI82
aI82
aI82
aI68
aI82
aI82
aI118
aI82
aI66
aI82
aI45
aI55
aI82
aI52
aI66
aI82
aI81
aI82
aI82
aI82
aI82
aI82
aI82
aI82
aI82
aI39
aI82
aI47
aI82
aI82
aI82
aI66
aI82
aI40
aI82
aI82
aI82
aI82
aI71
aI82
aI82
aI56
aI82
aI82
aI82
aI82
aI82
aI82
aI71
aI82
aI39
aI82
aI82
aI82
aI82
aI69
aI82
aI82
aI82
aI82
aI82
aI82
aI82
aI82
aI82
aI74
aI82
aI82
aI82
aI54
aI82
aI82
aI81
aI65
aI82
aI82
aI82
aI82
aI82
aI82
aI82
aI82
aI82
aI82
aI82
aI74
aI49
aI82
aI82
aI82
aI82
aI82
aI82
aI82
aI82
aI82
aI82
aI65
aI82
aI82
aI82
aI82
aI82
aI82
aI82
aI82
aI82
aI82
aI82
aI82
aI82
aI82
aI47
aI48
aI81
aI81
aI48
aI81
aI81
aI66
aI81
aI66
aI81
aI66
aI81
aI81
aI46
aI74
aI81
aI81
aI81
aI81
aI61
aI81
aI81
aI81
aI81
aI81
aI81
aI67
aI82
aI69
aI82
aI39
aI71
aI71
aI82
aI56
aI82
aI82
aI82
aI82
aI82
aI45
aI82
aI65
aI82
aI82
aI82
aI82
aI82
aI67
aI71
aI82
aI82
aI54
aI82
aI82
aI82
aI67
aI50
aI71
aI71
aI71
aI71
aI84
aI52
aI45
aI73
aI81
aI82
aI82
aI56
aI82
aI82
aI47
aI118
aI82
aI66
aI82
aI65
aI82
aI82
aI82
aI65
aI82
aI82
aI52
aI82
aI82
aI82
aI82
aI82
aI82
aI82
aI82
aI82
aI70
aI56
aI43
aI82
aI82
aI82
aI82
aI82
aI82
aI82
aI82
aI52
aI82
aI82
aI82
aI82
aI82
aI82
aI82
aI82
aI82
aI43
aI82
aI82
aI71
aI82
aI65
aI82
aI82
aI69
aI71
aI57
aI82
aI67
aI71
aI81
aI71
aI71
aI82
aI82
aI82
aI82
aI81
aI47
aI82
aI47
aI81
aI82
aI82
aI82
aI82
aI82
aI82
aI82
aI82
aI82
aI82
aI134
aI71
aI61
aI70
aI71
aI49
aI66
aI71
aI71
aI71
aI82
aI82
aI58
aI82
aI82
aI82
aI82
aI82
aI52
aI82
aI82
aI82
aI46
aI82
aI82
aI82
aI82
aI52
aI47
aI82
aI82
aI82
aI82
aI82
aI82
aI82
aI82
aI82
aI52
aI71
aI82
aI82
aI82
aI82
aI82
aI82
aI82
aI82
aI82
aI82
aI65
aI82
aI82
aI82
aI82
aI82
aI82
aI82
aI73
aI82
aI56
aI82
aI82
aI70
aI81
aI71
aI71
aI73
aI71
aI46
aI82
aI118
aI65
aI71
aI83
aI82
aI82
aI82
aI82
aI66
aI71
aI82
aI82
aI43
aI83
aI82
aI82
aI82
aI82
aI82
aI118
aI58
aI82
aI82
aI48
aI82
aI82
aI73
aI82
aI82
aI82
aI64
aI82
aI71
aI41
aI56
aI82
aI47
aI82
aI82
aI82
aI82
aI82
aI82
aI45
aI82
aI82
aI82
aI82
aI82
aI82
aI134
aI71
aI71
aI82
aI81
aI63
aI71
aI71
aI82
aI48
aI82
aI56
aI82
aI82
aI82
aI82
aI82
aI82
aI82
aI82
aI82
aI82
aI82
aI82
aI82
aI69
aI82
aI82
aI52
aI82
aI57
aI67
aI82
aI82
aI82
aI82
aI82
aI52
aI82
aI52
aI48
aI82
aI82
aI82
aI71
aI82
aI82
aI46
aI74
aI49
aI74
aI82
aI82
aI82
aI82
aI82
aI82
aI82
aI70
aI71
aI82
aI82
aI82
aI82
aI71
aI82
aI82
aI82
aI82
aI82
aI44
aI52
aI82
aI82
aI52
aI82
aI82
aI82
aI82
aI49
aI71
aI71
aI55
aI82
aI82
aI82
aI82
aI82
aI65
aI82
aI73
aI82
aI82
aI82
aI82
aI82
aI118
aI46
aI82
aI82
aI82
aI82
aI70
aI82
aI82
aI39
aI82
aI82
aI82
aI82
aI71
aI82
aI82
aI82
aI82
aI82
aI107
aI48
aI52
aI52
aI82
aI82
aI49
aI82
aI82
aI82
aI39
aI82
aI82
aI82
aI82
aI82
aI82
aI82
aI82
aI82
aI82
aI82
aI82
aI55
aI47
aI82
aI82
aI82
aI82
aI82
aI82
aI71
aI82
aI82
aI82
aI82
aI82
aI82
aI82
aI82
aI82
aI82
aI82
aI39
aI82
aI70
aI82
aI82
aI82
aI82
aI82
aI65
aI82
aI82
aI82
aI70
aI41
aI82
aI82
aI82
aI82
aI57
aI82
aI82
aI82
aI39
aI82
aI67
aI82
aI82
aI82
aI82
aI82
aI82
aI67
aI66
aI82
aI82
aI82
aI64
aI71
aI39
aI82
aI82
aI65
aI82
aI49
aI82
aI82
aI82
aI82
aI82
aI82
aI57
aI47
aI82
aI82
aI63
aI83
aI82
aI82
aI82
aI99
aI82
aI82
aI82
aI82
aI82
aI82
aI82
aI82
aI99
aI82
aI82
aI82
aI39
aI82
aI82
aI41
aI82
aI82
aI82
aI54
aI82
aI83
aI82
aI82
aI82
aI82
aI73
aI54
aI82
aI82
aI63
aI82
aI82
aI82
aI65
aI47
aI99
aI69
aI82
aI82
aI82
aI55
aI54
aI82
aI82
aI82
aI55
aI82
aI82
aI58
aI82
aI73
aI71
aI82
aI82
aI82
aI82
aI57
aI82
aI82
aI82
aI82
aI82
aI82
aI82
aI58
aI82
aI82
aI82
aI82
aI82
aI39
aI82
aI82
aI82
aI82
aI82
aI82
aI82
aI82
aI82
aI45
aI41
aI82
aI82
aI82
aI82
aI82
aI58
aI62
aI82
aI67
aI82
aI71
aI82
aI82
aI44
aI82
aI82
aI56
aI82
aI82
aI82
aI82
aI82
aI82
aI39
aI82
aI81
aI82
aI82
aI82
aI64
aI66
aI82
aI82
aI82
aI82
aI82
aI82
aI44
aI82
aI82
aI66
aI47
aI82
aI82
aI47
aI82
aI82
aI82
aI82
aI83
aI82
aI82
aI54
aI82
aI52
aI81
aI71
aI82
aI56
aI57
aI82
aI82
aI82
aI82
aI82
aI82
aI82
aI82
aI82
aI82
aI82
aI82
aI82
aI54
aI82
aI82
aI82
aI81
aI82
aI43
aI82
aI82
aI82
aI82
aI82
aI82
aI82
aI69
aI65
aI82
aI82
aI82
aI82
aI82
aI82
aI73
aI54
aI82
aI82
aI82
aI82
aI82
aI82
aI82
aI52
aI82
aI82
aI82
aI52
aI82
aI82
aI82
aI82
aI82
aI82
aI82
aI82
aI82
aI82
aI55
aI82
aI82
aI82
aI82
aI82
aI82
aI82
aI82
aI56
aI82
aI56
aI82
aI56
aI48
aI82
aI88
aI82
aI82
aI82
aI67
aI64
aI71
aI82
aI82
aI82
aI82
aI82
aI82
aI82
aI82
aI54
aI82
aI82
aI67
aI82
aI82
aI82
aI82
aI49
aI82
aI52
aI44
aI57
aI83
aI82
aI82
aI57
aI82
aI82
aI82
aI82
aI82
aI82
aI82
aI82
aI82
aI82
aI82
aI83
aI82
aI73
aI82
aI82
aI82
aI82
aI39
aI82
aI82
aI82
aI47
aI82
aI49
aI58
aI49
aI82
aI71
aI82
aI66
aI67
aI82
aI82
aI82
aI82
aI82
aI82
aI82
aI82
aI83
aI82
aI82
aI82
aI48
aI83
aI52
aI82
aI82
aI82
aI47
aI82
aI82
aI82
aI82
aI82
aI82
aI82
aI82
aI82
aI82
aI82
aI82
aI83
aI69
aI82
aI82
aI82
aI73
aI82
aI61
aI65
aI82
aI82
aI48
aI49
aI82
aI82
aI82
aI134
aI69
aI82
aI73
aI82
aI64
aI82
aI82
aI82
aI82
aI82
aI82
aI71
aI82
aI82
aI82
aI82
aI82
aI82
aI82
aI82
aI82
aI82
aI54
aI82
aI46
aI52
aI45
aI82
aI82
aI82
aI82
aI56
aI82
aI99
aI56
aI82
aI82
aI82
aI65
aI82
aI82
aI82
aI82
aI82
aI82
aI82
aI82
aI82
aI82
aI67
aI82
aI82
aI82
aI69
aI82
aI83
aI47
aI82
aI82
aI82
aI61
aI82
aI82
aI82
aI82
aI82
aI49
aI82
aI82
aI82
aI82
aI56
aI82
aI57
aI82
aI82
aI82
aI82
aI67
aI43
aI54
aI82
aI51
aI82
aI82
aI47
aI82
aI66
aI82
aI82
aI82
aI82
aI82
aI67
aI82
aI82
aI82
aI48
aI66
aI82
aI82
aI82
aI82
aI82
aI82
aI82
aI58
aI54
aI82
aI82
aI82
aI82
aI82
aI61
aI82
aI49
aI69
aI82
aI82
aI49
aI82
aI82
aI82
aI82
aI47
aI82
aI82
aI82
aI82
aI82
aI82
aI69
aI82
aI65
aI82
aI82
aI82
aI82
aI65
aI82
aI82
aI82
aI49
aI82
aI82
aI82
aI61
aI82
aI82
aI55
aI82
aI82
aI41
aI61
aI49
aI82
aI82
aI82
aI83
aI66
aI82
aI39
aI82
aI82
aI82
aI52
aI82
aI66
aI82
aI82
aI82
aI82
aI82
aI82
aI65
aI82
aI82
aI82
aI99
aI60
aI82
aI44
aI82
aI82
aI82
aI82
aI82
aI82
aI82
aI81
aI58
aI82
aI82
aI82
aI99
aI82
aI82
aI82
aI82
aI82
aI61
aI82
aI40
aI83
aI82
aI82
aI82
aI82
aI82
aI82
aI44
aI82
aI82
aI82
aI82
aI82
aI82
aI82
aI82
aI45
aI52
aI67
aI134
aI71
aI82
aI49
aI82
aI82
aI82
aI58
aI82
aI82
aI82
aI82
aI57
aI82
aI82
aI82
aI55
aI81
aI82
aI82
aI82
aI82
aI82
aI82
aI47
aI82
aI82
aI43
aI66
aI82
aI82
aI67
aI82
aI82
aI82
aI82
aI47
aI82
aI82
aI82
aI82
aI82
aI39
aI82
aI82
aI82
aI82
aI49
aI48
aI82
aI82
aI82
aI82
aI99
aI82
aI82
aI82
aI82
aI82
aI82
aI82
aI82
aI43
aI82
aI82
aI82
aI82
aI82
aI82
aI82
aI82
aI82
aI82
aI82
aI82
aI82
aI82
aI56
aI82
aI82
aI82
aI82
aI104
aI82
aI82
aI82
aI82
aI41
aI82
aI82
aI82
aI58
aI82
aI82
aI48
aI55
aI82
aI82
aI82
aI82
aI82
aI82
aI82
aI82
aI82
aI82
aI104
aI82
aI82
aI82
aI82
aI67
aI82
aI70
aI82
aI82
aI82
aI82
aI82
aI82
aI82
aI82
aI82
aI82
aI104
aI82
aI81
aI82
aI48
aI82
aI82
aI82
aI82
aI82
aI82
aI82
aI82
aI82
aI82
aI82
aI82
aI67
aI82
aI82
aI82
aI82
aI82
aI65
aI82
aI39
aI82
aI82
aI82
aI82
aI61
aI82
aI65
aI111
aI48
aI82
aI82
aI66
aI82
aI65
aI82
aI82
aI82
aI45
aI61
aI82
aI82
aI82
aI82
aI82
aI82
aI82
aI82
aI82
aI82
aI82
aI82
aI71
aI82
aI49
aI69
aI82
aI39
aI64
aI67
aI82
aI82
aI82
aI82
aI49
aI82
aI82
aI82
aI82
aI73
aI69
aI82
aI82
aI52
aI82
aI82
aI82
aI82
aI82
aI82
aI82
aI82
aI121
aI71
aI43
aI52
aI65
aI82
aI71
aI82
aI82
aI82
aI82
aI82
aI69
aI82
aI61
aI82
aI82
aI82
aI82
aI82
aI46
aI73
aI82
aI82
aI82
aI44
aI82
aI82
aI82
aI82
aI82
aI61
aI44
aI82
aI82
aI121
aI82
aI82
aI69
aI69
aI82
aI82
aI82
aI82
aI82
aI82
aI82
aI82
aI67
aI82
aI49
aI82
aI82
aI82
aI91
aI82
aI71
aI82
aI66
aI82
aI82
aI82
aI39
aI82
aI82
aI67
aI43
aI82
aI82
aI67
aI52
aI66
aI99
aI61
aI82
aI82
aI82
aI82
aI82
aI70
aI71
aI82
aI82
aI82
aI82
aI82
aI73
aI82
aI82
aI49
aI82
aI82
aI56
aI82
aI46
aI82
aI65
aI82
aI82
aI82
aI82
aI82
aI82
aI82
aI82
aI82
aI82
aI82
aI54
aI76
aI82
aI82
aI82
aI82
aI82
aI82
aI82
aI82
aI82
aI82
aI82
aI82
aI58
aI43
aI58
aI82
aI82
aI82
aI82
aI81
aI82
aI43
aI58
aI82
aI82
aI82
aI82
aI64
aI82
aI82
aI82
aI82
aI82
aI82
aI82
aI82
aI82
aI82
aI82
aI99
aI82
aI82
aI82
aI66
aI82
aI82
aI48
aI82
aI82
aI82
aI82
aI57
aI82
aI82
aI82
aI82
aI82
aI54
aI82
aI82
aI82
aI82
aI65
aI82
aI82
aI82
aI82
aI82
aI47
aI67
aI82
aI82
aI56
aI52
aI39
aI82
aI82
aI82
aI82
aI82
aI82
aI82
aI82
aI52
aI67
aI66
aI39
aI82
aI69
aI82
aI69
aI54
aI82
aI82
aI82
aI82
aI82
aI82
aI82
aI82
aI81
aI82
aI82
aI52
aI45
aI82
aI64
aI82
aI82
aI82
aI61
aI82
aI82
aI82
aI82
aI82
aI82
aI84
aI45
aI82
aI82
aI82
aI81
aI82
aI121
aI82
aI82
aI49
aI82
aI66
aI55
aI82
aI82
aI66
aI82
aI82
aI82
aI82
aI73
aI82
aI82
aI82
aI83
aI82
aI82
aI82
aI82
aI42
aI82
aI82
aI82
aI82
aI82
aI82
aI39
aI82
aI82
aI121
aI82
aI82
aI82
aI82
aI55
aI56
aI43
aI82
aI47
aI43
aI82
aI82
aI82
aI48
aI82
aI82
aI82
aI82
aI82
aI71
aI82
aI82
aI82
aI82
aI82
aI82
aI82
aI82
aI48
aI49
aI82
aI82
aI83
aI83
aI69
aI82
aI82
aI39
aI82
aI81
aI39
aI82
aI82
aI58
aI82
aI82
aI82
aI82
aI82
aI99
aI55
aI82
aI82
aI82
aI82
aI82
aI82
aI82
aI82
aI82
aI82
aI82
aI82
aI82
aI47
aI82
aI82
aI61
aI82
aI39
aI70
aI82
aI66
aI80
aI83
aI82
aI82
aI82
aI82
aI82
aI82
aI82
aI43
aI82
aI65
aI83
aI83
aI81
aI39
aI83
aI82
aI83
aI58
aI83
aI83
aI83
aI83
aI83
aI83
aI83
aI82
aI82
aI82
aI82
aI82
aI73
aI39
aI82
aI67
aI82
aI82
aI82
aI82
aI82
aI67
aI83
aI82
aI52
aI47
aI43
aI82
aI82
aI82
aI82
aI80
aI82
aI82
aI43
aI49
aI82
aI57
aI82
aI56
aI64
aI82
aI48
aI82
aI82
aI82
aI44
aI82
aI82
aI46
aI82
aI82
aI82
aI82
aI82
aI82
aI82
aI76
aI83
aI83
aI83
aI65
aI83
aI83
aI39
aI82
aI82
aI82
aI82
aI43
aI61
aI83
aI83
aI83
aI83
aI82
aI82
aI82
aI65
aI66
aI82
aI82
aI82
aI82
aI82
aI43
aI70
aI83
aI82
aI82
aI82
aI121
aI83
aI54
aI82
aI83
aI46
aI65
aI83
aI81
aI83
aI82
aI82
aI104
aI69
aI71
aI82
aI82
aI82
aI82
aI84
aI45
aI83
aI82
aI82
aI43
aI82
aI82
aI82
aI83
aI83
aI83
aI82
aI82
aI82
aI39
aI80
aI39
aI83
aI82
aI82
aI82
aI82
aI82
aI47
aI82
aI81
aI82
aI82
aI81
aI47
aI82
aI82
aI54
aI82
aI82
aI82
aI82
aI82
aI82
aI82
aI83
aI82
aI82
aI82
aI83
aI82
aI82
aI82
aI39
aI82
aI83
aI83
aI83
aI65
aI83
aI85
aI84
aI83
aI83
aI102
aI82
aI82
aI82
aI82
aI82
aI82
aI55
aI81
aI82
aI82
aI82
aI82
aI63
aI47
aI52
aI81
aI82
aI83
aI82
aI82
aI82
aI82
aI82
aI82
aI82
aI57
aI82
aI45
aI82
aI82
aI82
aI82
aI82
aI82
aI56
aI82
aI82
aI104
aI82
aI82
aI82
aI83
aI82
aI82
aI82
aI82
aI82
aI82
aI82
aI81
aI46
aI82
aI52
aI47
aI82
aI82
aI65
aI82
aI82
aI82
aI67
aI82
aI82
aI65
aI43
aI82
aI82
aI57
aI82
aI82
aI82
aI82
aI82
aI82
aI82
aI82
aI82
aI82
aI82
aI82
aI43
aI82
aI46
aI82
aI82
aI82
aI82
aI82
aI82
aI82
aI82
aI43
aI82
aI63
aI82
aI82
aI82
aI82
aI82
aI82
aI79
aI82
aI82
aI56
aI82
aI82
aI39
aI82
aI82
aI82
aI82
aI82
aI82
aI82
aI65
aI82
aI82
aI82
aI82
aI82
aI65
aI82
aI48
aI82
aI82
aI67
aI82
aI82
aI82
aI80
aI82
aI82
aI82
aI56
aI82
aI82
aI82
aI47
aI82
aI82
aI82
aI82
aI82
aI82
aI82
aI82
aI82
aI39
aI47
aI82
aI82
aI66
aI82
aI82
aI82
aI82
aI82
aI39
aI47
aI82
aI82
aI81
aI82
aI52
aI82
aI48
aI82
aI66
aI43
aI82
aI39
aI82
aI82
aI82
aI84
aI82
aI82
aI64
aI82
aI56
aI39
aI82
aI82
aI82
aI65
aI48
aI57
aI39
aI82
aI82
aI82
aI82
aI82
aI56
aI82
aI82
aI82
aI82
aI82
aI75
aI81
aI81
aI81
aI82
aI82
aI82
aI82
aI82
aI82
aI43
aI82
aI82
aI82
aI47
aI82
aI83
aI43
aI82
aI82
aI82
aI82
aI82
aI82
aI82
aI82
aI39
aI82
aI82
aI82
aI82
aI82
aI82
aI56
aI82
aI103
aI82
aI82
aI82
aI82
aI41
aI82
aI82
aI48
aI82
aI82
aI82
aI82
aI39
aI82
aI82
aI82
aI65
aI104
aI67
aI82
aI60
aI82
aI56
aI82
aI82
aI82
aI82
aI82
aI82
aI82
aI82
aI82
aI82
aI82
aI82
aI82
aI45
aI82
aI82
aI82
aI82
aI82
aI82
aI82
aI82
aI82
aI45
aI83
aI82
aI82
aI82
aI82
aI82
aI82
aI82
aI45
aI83
aI48
aI82
aI82
aI82
aI45
aI57
aI62
aI82
aI82
aI82
aI82
aI55
aI82
aI82
aI82
aI82
aI66
aI82
aI83
aI83
aI82
aI82
aI82
aI82
aI82
aI82
aI82
aI82
aI82
aI82
aI69
aI39
aI82
aI82
aI82
aI82
aI82
aI82
aI82
aI81
aI82
aI81
aI82
aI82
aI82
aI67
aI82
aI82
aI82
aI82
aI82
aI82
aI54
aI48
aI66
aI82
aI82
aI82
aI82
aI82
aI82
aI82
aI82
aI82
aI82
aI39
aI82
aI82
aI61
aI82
aI48
aI82
aI82
aI82
aI82
aI82
aI82
aI82
aI43
aI82
aI82
aI82
aI82
aI58
aI82
aI82
aI82
aI82
aI82
aI66
aI82
aI82
aI82
aI82
aI60
aI82
aI82
aI82
aI66
aI83
aI66
aI66
aI47
aI52
aI68
aI66
aI66
aI66
aI52
aI76
aI85
aI66
aI83
aI83
aI82
aI43
aI81
aI66
aI49
aI66
aI66
aI66
aI83
aI83
aI83
aI82
aI82
aI48
aI104
aI82
aI82
aI83
aI82
aI66
aI82
aI82
aI82
aI82
aI82
aI54
aI82
aI48
aI82
aI82
aI82
aI83
aI82
aI82
aI99
aI81
aI82
aI66
aI82
aI99
aI82
aI82
aI82
aI82
aI81
aI82
aI73
aI66
aI82
aI66
aI66
aI66
aI66
aI66
aI66
aI66
aI66
aI58
aI66
aI66
aI66
aI66
aI66
aI54
aI61
aI84
aI66
aI66
aI66
aI66
aI66
aI66
aI66
aI66
aI44
aI66
aI66
aI66
aI66
aI66
aI66
aI66
aI66
aI66
aI66
aI68
aI66
aI65
aI66
aI66
aI60
aI66
aI66
aI66
aI66
aI66
aI66
aI66
aI66
aI66
aI66
aI56
aI66
aI66
aI66
aI66
aI82
aI48
aI66
aI66
aI43
aI66
aI66
aI66
aI66
aI43
aI66
aI66
aI66
aI66
aI66
aI66
aI39
aI66
aI66
aI66
aI48
aI66
aI66
aI66
aI66
aI66
aI66
aI66
aI66
aI66
aI56
aI63
aI66
aI52
aI66
aI58
aI66
aI49
aI42
aI66
aI66
aI66
aI48
aI66
aI66
aI66
aI66
aI49
aI66
aI66
aI58
aI54
aI48
aI66
aI43
aI56
aI66
aI66
aI104
aI66
aI81
aI63
aI81
aI81
aI81
aI81
aI39
aI81
aI81
aI81
aI48
aI81
aI79
aI81
aI81
aI81
aI80
aI64
aI48
aI66
aI79
aI82
aI55
aI81
aI81
aI81
aI81
aI81
aI81
aI41
aI66
aI66
aI66
aI66
aI66
aI46
aI100
aI81
aI67
aI43
aI82
aI82
aI82
aI44
aI82
aI83
aI82
aI81
aI82
aI82
aI73
aI66
aI66
aI66
aI48
aI66
aI66
aI82
aI82
aI82
aI44
aI83
aI82
aI83
aI82
aI82
aI72
aI41
aI39
aI66
aI84
aI81
aI81
aI81
aI81
aI81
aI81
aI82
aI81
aI82
aI99
aI55
aI82
aI82
aI82
aI82
aI82
aI82
aI82
aI82
aI44
aI82
aI82
aI82
aI82
aI82
aI54
aI83
aI83
aI83
aI82
aI83
aI100
aI82
aI83
aI82
aI100
aI83
aI82
aI49
aI73
aI65
aI71
aI82
aI65
aI77
aI82
aI82
aI82
aI82
aI67
aI79
aI82
aI83
aI83
aI73
aI82
aI82
aI83
aI83
aI83
aI83
aI82
aI48
aI83
aI46
aI83
aI82
aI52
aI81
aI81
aI81
aI81
aI81
aI81
aI78
aI81
aI57
aI80
aI81
aI81
aI81
aI80
aI81
aI81
aI81
aI81
aI81
aI58
aI42
aI81
aI110
aI81
aI121
aI82
aI82
aI73
aI39
aI83
aI65
aI83
aI83
aI83
aI84
aI83
aI83
aI83
aI83
aI83
aI83
aI83
aI83
aI83
aI83
aI65
aI82
aI81
aI50
aI52
aI82
aI110
aI82
aI82
aI83
aI82
aI65
aI82
aI82
aI82
aI82
aI82
aI41
aI82
aI82
aI82
aI83
aI54
aI82
aI82
aI82
aI58
aI82
aI82
aI82
aI82
aI82
aI82
aI82
aI82
aI82
aI82
aI82
aI63
aI47
aI82
aI82
aI82
aI82
aI82
aI84
aI82
aI56
aI82
aI82
aI82
aI82
aI44
aI82
aI82
aI82
aI82
aI56
aI82
aI82
aI82
aI82
aI82
aI82
aI82
aI82
aI83
aI46
aI82
aI82
aI82
aI82
aI82
aI82
aI82
aI82
aI82
aI43
aI82
aI44
aI82
aI82
aI82
aI43
aI82
aI54
aI82
aI82
aI82
aI82
aI99
aI82
aI82
aI82
aI82
aI84
aI82
aI82
aI43
aI82
aI82
aI82
aI82
aI82
aI82
aI82
aI82
aI82
aI82
aI82
aI54
aI82
aI69
aI81
aI81
aI81
aI81
aI81
aI81
aI47
aI81
aI81
aI54
aI66
aI81
aI81
aI81
aI43
aI81
aI81
aI54
aI66
aI66
aI83
aI82
aI82
aI51
aI81
aI81
aI82
aI81
aI66
aI66
aI56
aI66
aI66
aI81
aI81
aI81
aI82
aI82
aI82
aI82
aI43
aI82
aI82
aI82
aI82
aI82
aI82
aI82
aI82
a.