(lp0
I47
aI39
aI49
aI39
aI39
aI39
aI39
aI39
aI39
aI61
aI39
aI39
aI55
aI39
aI51
aI39
aI39
aI39
aI49
aI41
aI39
aI39
aI59
aI63
aI39
aI39
aI39
aI62
aI39
aI39
aI49
aI39
aI39
aI58
aI51
aI52
aI39
aI39
aI39
aI39
aI39
aI39
aI39
aI39
aI41
aI49
aI57
aI39
aI39
aI39
aI55
aI39
aI39
aI53
aI39
aI66
aI39
aI39
aI49
aI39
aI51
aI39
aI39
aI39
aI39
aI39
aI39
aI51
aI39
aI51
aI39
aI58
aI45
aI39
aI41
aI39
aI39
aI50
aI39
aI39
aI39
aI39
aI39
aI39
aI39
aI39
aI39
aI51
aI39
aI39
aI52
aI39
aI46
aI39
aI39
aI39
aI39
aI39
aI39
aI39
aI54
aI52
aI39
aI39
aI39
aI39
aI60
aI69
aI64
aI62
aI61
aI62
aI48
aI61
aI42
aI60
aI52
aI60
aI51
aI59
aI59
aI59
aI58
aI58
aI58
aI55
aI55
aI55
aI55
aI51
aI54
aI54
aI74
aI54
aI54
aI53
aI53
aI53
aI53
aI54
aI53
aI53
aI53
aI52
aI53
aI53
aI53
aI53
aI53
aI53
aI53
aI53
aI53
aI49
aI53
aI53
aI41
aI49
aI53
aI53
aI53
aI53
aI53
aI47
aI53
aI53
aI53
aI41
aI53
aI53
aI53
aI53
aI53
aI53
aI53
aI41
aI53
aI53
aI53
aI53
aI53
aI53
aI53
aI53
aI53
aI53
aI53
aI53
aI53
aI53
aI53
aI42
aI53
aI53
aI53
aI52
aI41
aI53
aI53
aI53
aI53
aI51
aI54
aI54
aI53
aI53
aI53
aI53
aI53
aI49
aI44
aI53
aI53
aI50
aI42
aI54
aI54
aI53
aI53
aI76
aI53
aI51
aI54
aI54
aI51
aI53
aI50
aI47
aI53
aI53
aI53
aI53
aI47
aI53
aI53
aI40
aI53
aI53
aI48
aI53
aI49
aI53
aI53
aI53
aI48
aI41
aI53
aI53
aI53
aI41
aI53
aI41
aI52
aI53
aI52
aI53
aI53
aI53
aI53
aI53
aI53
aI53
aI53
aI46
aI53
aI53
aI53
aI52
aI52
aI52
aI51
aI50
aI50
aI41
aI50
aI50
aI50
aI50
aI49
aI49
aI49
aI49
aI49
aI49
aI48
aI48
aI48
aI48
aI48
aI47
aI48
aI48
aI48
aI48
aI48
aI48
aI47
aI47
aI48
aI48
aI48
aI48
aI48
aI48
aI48
aI48
aI48
aI47
aI49
aI51
aI48
aI48
aI47
aI41
aI48
aI48
aI48
aI49
aI49
aI50
aI48
aI48
aI48
aI47
aI48
aI47
aI48
aI48
aI48
aI48
aI48
aI48
aI47
aI48
aI49
aI48
aI48
aI48
aI48
aI45
aI45
aI48
aI47
aI48
aI48
aI48
aI48
aI48
aI48
aI43
aI48
aI47
aI47
aI47
aI47
aI40
aI47
aI48
aI46
aI47
aI47
aI47
aI47
aI47
aI47
aI47
aI48
aI48
aI48
aI47
aI48
aI44
aI48
aI48
aI48
aI48
aI50
aI48
aI48
aI48
aI49
aI50
aI49
aI49
aI49
aI49
aI51
aI49
aI49
aI46
aI49
aI43
aI51
aI51
aI51
aI42
aI48
aI50
aI50
aI50
aI50
aI50
aI50
aI49
aI50
aI50
aI50
aI50
aI50
aI51
aI50
aI50
aI49
aI50
aI50
aI47
aI50
aI50
aI50
aI50
aI49
aI50
aI50
aI50
aI49
aI50
aI50
aI50
aI50
aI50
aI50
aI50
aI50
aI50
aI49
aI43
aI50
aI50
aI50
aI50
aI50
aI53
aI48
aI50
aI49
aI50
aI50
aI50
aI50
aI50
aI50
aI50
aI50
aI50
aI50
aI50
aI50
aI50
aI52
aI50
aI50
aI50
aI50
aI50
aI50
aI50
aI50
aI50
aI50
aI50
aI50
aI50
aI50
aI50
aI50
aI50
aI50
aI51
aI50
aI50
aI50
aI50
aI50
aI48
aI48
aI50
aI50
aI50
aI50
aI50
aI50
aI50
aI50
aI49
aI50
aI50
aI50
aI50
aI50
aI50
aI50
aI50
aI50
aI50
aI50
aI50
aI52
aI44
aI50
aI50
aI50
aI50
aI50
aI50
aI50
aI49
aI50
aI50
aI72
aI50
aI50
aI50
aI50
aI50
aI50
aI50
aI50
aI49
aI50
aI49
aI50
aI50
aI50
aI50
aI50
aI50
aI50
aI50
aI50
aI48
aI49
aI50
aI52
aI50
aI50
aI50
aI50
aI50
aI49
aI50
aI50
aI50
aI50
aI50
aI50
aI50
aI50
aI50
aI50
aI50
aI50
aI50
aI50
aI50
aI50
aI50
aI50
aI50
aI50
aI50
aI50
aI50
aI47
aI50
aI50
aI50
aI50
aI50
aI50
aI50
aI52
aI50
aI50
aI50
aI50
aI50
aI50
aI46
aI49
aI52
aI50
aI50
aI50
aI50
aI55
aI50
aI50
aI50
aI50
aI50
aI50
aI50
aI50
aI44
aI50
aI50
aI50
aI50
aI50
aI50
aI50
aI50
aI50
aI50
aI41
aI50
aI50
aI50
aI57
aI49
aI50
aI50
aI50
aI50
aI50
aI50
aI50
aI50
aI50
aI48
aI50
aI50
aI50
aI50
aI48
aI50
aI48
aI50
aI50
aI47
aI50
aI50
aI50
aI50
aI50
aI50
aI56
aI50
aI50
aI50
aI50
aI41
aI50
aI49
aI50
aI39
aI48
aI50
aI50
aI50
aI50
aI50
aI50
aI50
aI47
aI50
aI50
aI50
aI50
aI50
aI50
aI50
aI50
aI50
aI41
aI50
aI40
aI48
aI54
aI50
aI50
aI50
aI50
aI50
aI50
aI50
aI50
aI50
aI52
aI50
aI54
aI49
aI50
aI50
aI50
aI57
aI47
aI50
aI50
aI46
aI50
aI50
aI50
aI51
aI43
aI47
aI50
aI50
aI57
aI50
aI50
aI50
aI50
aI50
aI50
aI50
aI50
aI50
aI50
aI50
aI50
aI50
aI50
aI50
aI50
aI47
aI46
aI50
aI50
aI50
aI48
aI50
aI50
aI50
aI68
aI50
aI50
aI50
aI50
aI50
aI50
aI50
aI48
aI50
aI50
aI50
aI50
aI50
aI50
aI50
aI50
aI52
aI52
aI52
aI50
aI50
aI50
aI50
aI50
aI50
aI50
aI40
aI49
aI50
aI50
aI50
aI50
aI50
aI50
aI46
aI50
aI50
aI50
aI50
aI50
aI50
aI50
aI50
aI50
aI46
aI46
aI50
aI50
aI50
aI47
aI52
aI50
aI50
aI57
aI50
aI50
aI50
aI50
aI49
aI50
aI50
aI50
aI50
aI50
aI49
aI50
aI50
aI50
aI52
aI50
aI50
aI50
aI50
aI50
aI50
aI50
aI50
aI50
aI50
aI50
aI50
aI50
aI48
aI46
aI50
aI50
aI53
aI50
aI50
aI47
aI50
aI50
aI40
aI48
aI50
aI50
aI50
aI50
aI49
aI49
aI49
aI50
aI50
aI50
aI50
aI50
aI50
aI50
aI50
aI48
aI50
aI50
aI50
aI50
aI50
aI50
aI41
aI50
aI50
aI50
aI50
aI49
aI51
aI50
aI50
aI50
aI50
aI50
aI50
aI50
aI50
aI47
aI50
aI50
aI50
aI46
aI50
aI50
aI71
aI50
aI50
aI52
aI49
aI52
aI50
aI50
aI50
aI50
aI50
aI50
aI50
aI50
aI50
aI50
aI50
aI50
aI50
aI50
aI47
aI50
aI50
aI50
aI50
aI51
aI50
aI49
aI50
aI50
aI50
aI50
aI50
aI50
aI50
aI50
aI50
aI50
aI50
aI48
aI50
aI50
aI49
aI49
aI62
aI51
aI50
aI50
aI50
aI50
aI50
aI50
aI47
aI50
aI50
aI50
aI50
aI50
aI50
aI50
aI50
aI50
aI50
aI50
aI50
aI50
aI50
aI52
aI50
aI51
aI51
aI50
aI50
aI50
aI50
aI50
aI50
aI50
aI50
aI50
aI50
aI50
aI50
aI50
aI41
aI50
aI46
aI45
aI65
aI50
aI50
aI49
aI47
aI50
aI50
aI50
aI50
aI50
aI50
aI50
aI49
aI50
aI50
aI50
aI50
aI50
aI50
aI50
aI50
aI50
aI50
aI50
aI50
aI50
aI52
aI50
aI50
aI50
aI50
aI50
aI50
aI50
aI50
aI50
aI50
aI47
aI50
aI50
aI50
aI49
aI51
aI45
aI50
aI50
aI50
aI50
aI50
aI50
aI50
aI56
aI50
aI49
aI50
aI50
aI50
aI50
aI50
aI50
aI50
aI43
aI50
aI51
aI50
aI50
aI50
aI50
aI50
aI50
aI42
aI50
aI50
aI47
aI50
aI50
aI50
aI50
aI50
aI50
aI50
aI50
aI50
aI50
aI50
aI50
aI50
aI52
aI50
aI50
aI50
aI50
aI47
aI50
aI52
aI50
aI50
aI50
aI50
aI50
aI46
aI50
aI55
aI50
aI50
aI50
aI50
aI58
aI50
aI49
aI50
aI50
aI50
aI50
aI50
aI50
aI50
aI50
aI50
aI46
aI46
aI50
aI50
aI47
aI49
aI51
aI51
aI54
aI50
aI50
aI50
aI50
aI50
aI50
aI50
aI47
aI50
aI50
aI50
aI50
aI50
aI46
aI50
aI50
aI50
aI46
aI50
aI50
aI50
aI50
aI50
aI50
aI50
aI50
aI49
aI50
aI50
aI50
aI53
aI50
aI50
aI50
aI50
aI50
aI51
aI50
aI50
aI50
aI46
aI50
aI50
aI50
aI40
aI50
aI50
aI50
aI50
aI46
aI50
aI50
aI50
aI50
aI50
aI50
aI40
aI50
aI53
aI51
aI50
aI58
aI50
aI49
aI50
aI50
aI50
aI50
aI50
aI50
aI50
aI50
aI47
aI46
aI50
aI50
aI46
aI50
aI54
aI49
aI50
aI45
aI50
aI50
aI50
aI50
aI50
aI53
aI50
aI46
aI50
aI50
aI50
aI50
aI50
aI50
aI50
aI49
aI46
aI50
aI50
aI52
aI56
aI50
aI50
aI50
aI50
aI50
aI50
aI50
aI49
aI50
aI50
aI46
aI50
aI50
aI50
aI45
aI49
aI51
aI51
aI51
aI51
aI50
aI50
aI56
aI50
aI50
aI50
aI50
aI50
aI50
aI50
aI50
aI50
aI47
aI50
aI50
aI55
aI50
aI46
aI50
aI50
aI50
aI41
aI50
aI46
aI50
aI50
aI50
aI50
aI50
aI50
aI50
aI50
aI50
aI50
aI50
aI50
aI47
aI50
aI50
aI45
aI48
aI50
aI49
aI50
aI44
aI46
aI50
aI50
aI50
aI50
aI50
aI50
aI50
aI50
aI41
aI50
aI50
aI50
aI42
aI50
aI50
aI50
aI52
aI50
aI64
aI50
aI50
aI48
aI46
aI50
aI50
aI42
aI50
aI50
aI50
aI45
aI50
aI50
aI50
aI50
aI50
aI50
aI50
aI50
aI50
aI50
aI50
aI50
aI50
aI50
aI50
aI50
aI51
aI51
aI51
aI51
aI51
aI51
aI51
aI51
aI49
aI51
aI48
aI51
aI48
aI51
aI51
aI51
aI51
aI51
aI51
aI52
aI40
aI51
aI51
aI51
aI55
aI49
aI51
aI51
aI51
aI44
aI51
aI48
aI51
aI52
aI51
aI51
aI51
aI46
aI51
aI51
aI47
aI51
aI51
aI51
aI51
aI51
aI49
aI51
aI46
aI40
aI51
aI49
aI47
aI42
aI51
aI49
aI51
aI47
aI51
aI51
aI51
aI51
aI51
aI51
aI51
aI42
aI46
aI51
aI51
aI51
aI51
aI51
aI51
aI52
aI51
aI51
aI51
aI51
aI52
aI51
aI48
aI51
aI51
aI41
aI51
aI49
aI40
aI47
aI51
aI51
aI51
aI51
aI51
aI51
aI51
aI51
aI51
aI51
aI51
aI51
aI51
aI51
aI51
aI58
aI51
aI51
aI51
aI51
aI51
aI44
aI51
aI51
aI52
aI51
aI51
aI46
aI47
aI51
aI51
aI51
aI51
aI51
aI51
aI51
aI51
aI51
aI51
aI44
aI45
aI57
aI50
aI49
aI51
aI51
aI51
aI51
aI56
aI51
aI51
aI51
aI45
aI51
aI51
aI51
aI51
aI51
aI51
aI52
aI52
aI51
aI51
aI51
aI40
aI51
aI48
aI51
aI51
aI51
aI51
aI51
aI51
aI42
aI47
aI51
aI51
aI51
aI51
aI52
aI51
aI51
aI51
aI51
aI51
aI51
aI46
aI51
aI51
aI51
aI48
aI51
aI51
aI51
aI48
aI51
aI51
aI51
aI46
aI51
aI51
aI46
aI53
aI51
aI46
aI51
aI51
aI48
aI51
aI53
aI51
aI48
aI51
aI51
aI51
aI51
aI51
aI41
aI51
aI51
aI51
aI51
aI46
aI51
aI51
aI51
aI45
aI51
aI51
aI51
aI51
aI51
aI51
aI51
aI51
aI51
aI51
aI48
aI51
aI46
aI51
aI51
aI51
aI51
aI51
aI51
aI61
aI51
aI51
aI51
aI51
aI41
aI51
aI49
aI51
aI51
aI51
aI51
aI51
aI51
aI46
aI51
aI52
aI51
aI51
aI51
aI51
aI51
aI51
aI51
aI52
aI52
aI51
aI55
aI51
aI51
aI51
aI51
aI51
aI49
aI51
aI41
aI51
aI51
aI41
aI45
aI51
aI48
aI51
aI51
aI51
aI39
aI51
aI48
aI51
aI51
aI51
aI56
aI51
aI51
aI51
aI51
aI51
aI45
aI51
aI51
aI51
aI51
aI48
aI51
aI45
aI51
aI51
aI51
aI51
aI51
aI51
aI51
aI40
aI49
aI49
aI45
aI51
aI51
aI50
aI54
aI51
aI51
aI51
aI51
aI51
aI45
aI51
aI51
aI51
aI47
aI51
aI51
aI51
aI51
aI51
aI51
aI51
aI51
aI51
aI51
aI51
aI51
aI51
aI52
aI49
aI51
aI51
aI47
aI51
aI51
aI51
aI51
aI51
aI51
aI51
aI51
aI51
aI51
aI51
aI51
aI50
aI51
aI51
aI51
aI57
aI51
aI51
aI51
aI41
aI51
aI51
aI46
aI51
aI51
aI46
aI51
aI55
aI51
aI47
aI51
aI51
aI51
aI51
aI51
aI51
aI46
aI47
aI51
aI56
aI41
aI51
aI48
aI43
aI51
aI48
aI51
aI50
aI51
aI51
aI51
aI51
aI46
aI50
aI51
aI48
aI51
aI51
aI41
aI43
aI48
aI51
aI59
aI51
aI51
aI51
aI51
aI51
aI51
aI51
aI51
aI51
aI51
aI69
aI51
aI51
aI51
aI51
aI51
aI51
aI68
aI51
aI51
aI51
aI51
aI58
aI51
aI51
aI51
aI51
aI51
aI46
aI51
aI47
aI51
aI51
aI51
aI51
aI49
aI51
aI51
aI51
aI41
aI51
aI51
aI51
aI51
aI51
aI51
aI51
aI46
aI51
aI51
aI51
aI51
aI51
aI66
aI51
aI51
aI51
aI51
aI51
aI51
aI51
aI51
aI51
aI42
aI45
aI51
aI51
aI66
aI51
aI51
aI51
aI51
aI51
aI51
aI52
aI47
aI51
aI51
aI43
aI51
aI49
aI52
aI51
aI51
aI51
aI52
aI51
aI51
aI51
aI51
aI51
aI51
aI51
aI51
aI51
aI51
aI51
aI47
aI51
aI51
aI51
aI51
aI51
aI51
aI47
aI47
aI51
aI51
aI51
aI51
aI51
aI48
aI51
aI51
aI51
aI51
aI48
aI51
aI51
aI51
aI48
aI51
aI51
aI44
aI51
aI51
aI51
aI51
aI51
aI51
aI51
aI51
aI51
aI51
aI48
aI46
aI51
aI45
aI51
aI58
aI41
aI51
aI51
aI49
aI51
aI51
aI51
aI48
aI51
aI44
aI51
aI61
aI47
aI51
aI50
aI51
aI51
aI51
aI51
aI51
aI46
aI51
aI51
aI51
aI51
aI46
aI47
aI51
aI51
aI51
aI46
aI51
aI51
aI51
aI51
aI51
aI51
aI51
aI51
aI51
aI51
aI51
aI51
aI51
aI51
aI51
aI51
aI51
aI47
aI51
aI51
aI51
aI51
aI51
aI51
aI52
aI48
aI51
aI52
aI61
aI46
aI41
aI51
aI51
aI51
aI41
aI51
aI51
aI51
aI51
aI51
aI51
aI51
aI51
aI51
aI51
aI51
aI51
aI51
aI51
aI47
aI51
aI51
aI51
aI51
aI47
aI51
aI51
aI51
aI57
aI51
aI51
aI50
aI45
aI41
aI51
aI51
aI51
aI51
aI51
aI51
aI51
aI51
aI50
aI51
aI51
aI51
aI52
aI55
aI51
aI44
aI52
aI51
aI51
aI51
aI51
aI51
aI51
aI51
aI51
aI57
aI51
aI55
aI51
aI51
aI51
aI52
aI51
aI51
aI51
aI51
aI51
aI51
aI51
aI51
aI45
aI51
aI51
aI52
aI51
aI51
aI48
aI51
aI46
aI43
aI51
aI51
aI45
aI51
aI51
aI51
aI51
aI51
aI51
aI44
aI51
aI51
aI51
aI51
aI51
aI51
aI41
aI51
aI51
aI46
aI51
aI42
aI59
aI51
aI51
aI51
aI51
aI51
aI51
aI51
aI46
aI51
aI50
aI52
aI46
aI51
aI51
aI51
aI41
aI52
aI51
aI51
aI51
aI51
aI51
aI51
aI49
aI49
aI51
aI48
aI51
aI51
aI51
aI51
aI51
aI51
aI51
aI51
aI50
aI46
aI51
aI51
aI51
aI51
aI51
aI51
aI51
aI41
aI51
aI47
aI47
aI51
aI51
aI46
aI43
aI57
aI51
aI51
aI51
aI46
aI51
aI51
aI51
aI51
aI51
aI51
aI51
aI51
aI51
aI51
aI51
aI51
aI51
aI51
aI51
aI51
aI45
aI51
aI51
aI51
aI51
aI51
aI51
aI51
aI47
aI51
aI51
aI46
aI51
aI51
aI51
aI51
aI51
aI51
aI51
aI51
aI51
aI44
aI51
aI57
aI51
aI51
aI51
aI51
aI47
aI51
aI51
aI51
aI51
aI51
aI51
aI51
aI51
aI47
aI51
aI51
aI51
aI51
aI51
aI48
aI51
aI51
aI51
aI51
aI62
aI46
aI51
aI51
aI46
aI51
aI52
aI51
aI51
aI51
aI51
aI51
aI50
aI51
aI61
aI45
aI51
aI61
aI51
aI61
aI57
aI51
aI51
aI52
aI51
aI48
aI51
aI51
aI51
aI51
aI51
aI51
aI51
aI41
aI51
aI51
aI51
aI51
aI51
aI51
aI51
aI51
aI51
aI51
aI51
aI51
aI51
aI51
aI51
aI51
aI51
aI51
aI47
aI51
aI51
aI47
aI46
aI51
aI51
aI61
aI51
aI51
aI51
aI51
aI51
aI62
aI62
aI51
aI51
aI51
aI51
aI51
aI51
aI51
aI41
aI51
aI44
aI51
aI51
aI51
aI51
aI51
aI59
aI51
aI51
aI51
aI51
aI51
aI51
aI51
aI51
aI51
aI43
aI51
aI51
aI51
aI51
aI51
aI51
aI51
aI56
aI52
aI51
aI51
aI51
aI51
aI51
aI51
aI51
aI51
aI46
aI51
aI51
aI51
aI59
aI51
aI51
aI51
aI51
aI52
aI51
aI51
aI56
aI46
aI51
aI51
aI51
aI51
aI61
aI51
aI51
aI51
aI51
aI51
aI54
aI51
aI51
aI49
aI47
aI51
aI52
aI51
aI51
aI51
aI51
aI51
aI51
aI51
aI51
aI51
aI51
aI53
aI51
aI56
aI47
aI51
aI56
aI51
aI51
aI51
aI51
aI51
aI45
aI41
aI51
aI51
aI51
aI53
aI51
aI46
aI51
aI51
aI51
aI51
aI51
aI51
aI48
aI51
aI51
aI51
aI51
aI47
aI51
aI51
aI51
aI51
aI48
aI51
aI51
aI51
aI51
aI51
aI51
aI51
aI51
aI51
aI51
aI51
aI51
aI52
aI51
aI51
aI51
aI51
aI48
aI51
aI51
aI51
aI51
aI51
aI51
aI51
aI51
aI47
aI51
aI51
aI51
aI51
aI51
aI55
aI52
aI68
aI51
aI51
aI51
aI51
aI41
aI51
aI55
aI51
aI51
aI51
aI51
aI51
aI52
aI49
aI49
aI51
aI51
aI51
aI51
aI62
aI45
aI47
aI51
aI51
aI51
aI54
aI57
aI48
aI51
aI51
aI51
aI51
aI51
aI51
aI47
aI45
aI41
aI48
aI51
aI51
aI51
aI51
aI51
aI51
aI51
aI51
aI51
aI48
aI51
aI51
aI67
aI52
aI52
aI51
aI51
aI51
aI69
aI51
aI51
aI46
aI51
aI51
aI51
aI45
aI51
aI51
aI63
aI50
aI51
aI51
aI51
aI48
aI51
aI51
aI44
aI48
aI51
aI51
aI52
aI48
aI51
aI51
aI51
aI51
aI51
aI51
aI51
aI51
aI51
aI48
aI51
aI51
aI51
aI51
aI51
aI51
aI45
aI51
aI51
aI48
aI51
aI51
aI51
aI51
aI51
aI51
aI51
aI51
aI51
aI46
aI51
aI51
aI51
aI51
aI51
aI51
aI51
aI51
aI53
aI46
aI44
aI51
aI51
aI51
aI47
aI51
aI51
aI51
aI45
aI51
aI51
aI51
aI49
aI51
aI51
aI50
aI51
aI51
aI51
aI51
aI51
aI51
aI44
aI46
aI51
aI51
aI51
aI51
aI51
aI68
aI51
aI51
aI51
aI45
aI51
aI51
aI51
aI51
aI51
aI51
aI51
aI51
aI54
aI51
aI51
aI51
aI61
aI51
aI51
aI51
aI53
aI51
aI51
aI51
aI46
aI49
aI48
aI51
aI51
aI51
aI51
aI51
aI51
aI62
aI51
aI68
aI51
aI50
aI51
aI48
aI51
aI67
aI46
aI51
aI51
aI51
aI51
aI51
aI51
aI51
aI51
aI51
aI49
aI49
aI51
aI51
aI71
aI51
aI51
aI51
aI46
aI51
aI51
aI51
aI51
aI51
aI51
aI49
aI51
aI51
aI51
aI51
aI51
aI51
aI51
aI51
aI51
aI51
aI51
aI51
aI51
aI51
aI51
aI49
aI51
aI51
aI51
aI51
aI51
aI50
aI53
aI51
aI51
aI48
aI51
aI51
aI51
aI51
aI51
aI51
aI51
aI51
aI51
aI51
aI51
aI51
aI51
aI47
aI47
aI49
aI51
aI48
aI47
aI51
aI51
aI51
aI51
aI51
aI45
aI51
aI46
aI51
aI51
aI53
aI49
aI51
aI51
aI51
aI51
aI51
aI51
aI51
aI51
aI47
aI51
aI51
aI51
aI51
aI47
aI51
aI51
aI46
aI49
aI51
aI51
aI51
aI51
aI51
aI51
aI51
aI51
aI52
aI51
aI51
aI51
aI50
aI59
aI51
aI51
aI51
aI51
aI51
aI51
aI62
aI43
aI51
aI51
aI51
aI45
aI51
aI51
aI51
aI51
aI51
aI51
aI51
aI45
aI51
aI51
aI51
aI51
aI51
aI51
aI45
aI51
aI51
aI51
aI51
aI66
aI51
aI41
aI48
aI51
aI50
aI51
aI51
aI58
aI51
aI48
aI49
aI51
aI46
aI68
aI51
aI68
aI51
aI49
aI67
aI51
aI51
aI51
aI51
aI48
aI51
aI51
aI51
aI45
aI51
aI48
aI51
aI51
aI51
aI51
aI51
aI51
aI51
aI51
aI51
aI58
aI51
aI51
aI51
aI51
aI51
aI51
aI51
aI51
aI51
aI51
aI52
aI51
aI51
aI51
aI51
aI51
aI50
aI51
aI51
aI51
aI65
aI51
aI51
aI51
aI51
aI51
aI51
aI44
aI49
aI51
aI51
aI47
aI53
aI51
aI51
aI51
aI51
aI66
aI51
aI51
aI51
aI49
aI51
aI54
aI47
aI51
aI51
aI51
aI52
aI61
aI62
aI51
aI51
aI52
aI51
aI47
aI51
aI56
aI41
aI51
aI48
aI51
aI51
aI48
aI49
aI51
aI51
aI58
aI61
aI51
aI51
aI51
aI51
aI46
aI51
aI49
aI51
aI50
aI51
aI51
aI52
aI52
aI52
aI52
aI52
aI51
aI51
aI51
aI51
aI51
aI51
aI49
aI51
aI51
aI66
aI51
aI51
aI51
aI51
aI51
aI51
aI51
aI51
aI51
aI51
aI51
aI51
aI51
aI51
aI51
aI51
aI51
aI51
aI51
aI51
aI51
aI48
aI51
aI51
aI51
aI51
aI51
aI51
aI51
aI51
aI51
aI51
aI51
aI51
aI51
aI51
aI51
aI51
aI51
aI66
aI51
aI51
aI51
aI51
aI50
aI51
aI49
aI43
aI51
aI51
aI51
aI54
aI51
aI51
aI46
aI51
aI51
aI69
aI51
aI51
aI51
aI51
aI51
aI51
aI51
aI51
aI51
aI52
aI51
aI51
aI51
aI51
aI69
aI51
aI51
aI51
aI51
aI51
aI51
aI51
aI51
aI55
aI62
aI51
aI49
aI51
aI62
aI51
aI63
aI42
aI51
aI51
aI51
aI51
aI48
aI51
aI51
aI51
aI48
aI51
aI51
aI45
aI51
aI51
aI48
aI51
aI51
aI51
aI51
aI66
aI51
aI51
aI51
aI48
aI51
aI49
aI51
aI51
aI51
aI49
aI65
aI51
aI51
aI51
aI51
aI51
aI51
aI51
aI51
aI51
aI51
aI51
aI49
aI52
aI52
aI52
aI52
aI52
aI53
aI51
aI51
aI51
aI51
aI51
aI54
aI53
aI51
aI51
aI51
aI51
aI52
aI51
aI51
aI51
aI51
aI45
aI51
aI51
aI51
aI44
aI51
aI51
aI51
aI51
aI68
aI51
aI51
aI51
aI51
aI51
aI51
aI51
aI51
aI69
aI40
aI51
aI51
aI69
aI51
aI48
aI51
aI51
aI51
aI58
aI66
aI51
aI51
aI51
aI51
aI51
aI51
aI51
aI48
aI51
aI51
aI51
aI45
aI51
aI51
aI47
aI51
aI51
aI51
aI51
aI50
aI51
aI51
aI65
aI51
aI51
aI51
aI56
aI56
aI55
aI51
aI51
aI51
aI51
aI51
aI52
aI65
aI51
aI47
aI51
aI51
aI51
aI51
aI51
aI51
aI51
aI65
aI51
aI51
aI53
aI49
aI51
aI51
aI45
aI51
aI46
aI51
aI46
aI51
aI47
aI42
aI51
aI51
aI51
aI51
aI68
aI46
aI51
aI51
aI51
aI66
aI52
aI47
aI43
aI51
aI49
aI51
aI49
aI51
aI52
aI52
aI52
aI53
aI51
aI51
aI51
aI51
aI51
aI51
aI51
aI46
aI51
aI51
aI51
aI70
aI41
aI51
aI51
aI51
aI51
aI51
aI51
aI51
aI51
aI51
aI51
aI44
aI51
aI51
aI51
aI51
aI52
aI51
aI51
aI44
aI51
aI51
aI51
aI51
aI47
aI51
aI51
aI71
aI52
aI52
aI52
aI51
aI46
aI51
aI51
aI51
aI51
aI58
aI51
aI51
aI51
aI58
aI51
aI51
aI51
aI51
aI69
aI51
aI51
aI51
aI51
aI51
aI47
aI51
aI51
aI51
aI51
aI51
aI51
aI51
aI47
aI51
aI51
aI51
aI51
aI51
aI68
aI51
aI51
aI58
aI51
aI51
aI51
aI51
aI67
aI45
aI51
aI53
aI63
aI69
aI51
aI51
aI51
aI51
aI51
aI51
aI67
aI51
aI51
aI71
aI51
aI54
aI51
aI51
aI50
aI52
aI51
aI51
aI51
aI51
aI51
aI51
aI51
aI51
aI51
aI49
aI51
aI51
aI51
aI51
aI44
aI51
aI51
aI51
aI51
aI49
aI51
aI51
aI42
aI51
aI51
aI51
aI55
aI51
aI51
aI51
aI51
aI51
aI51
aI51
aI51
aI51
aI51
aI51
aI71
aI51
aI46
aI51
aI51
aI50
aI48
aI51
aI51
aI51
aI51
aI52
aI52
aI52
aI52
aI71
aI52
aI52
aI66
aI51
aI51
aI51
aI48
aI51
aI46
aI44
aI51
aI51
aI51
aI51
aI51
aI70
aI51
aI51
aI68
aI51
aI51
aI51
aI51
aI46
aI51
aI53
aI51
aI47
aI51
aI51
aI51
aI51
aI51
aI52
aI62
aI58
aI50
aI51
aI51
aI51
aI51
aI51
aI48
aI51
aI51
aI51
aI51
aI51
aI51
aI51
aI51
aI51
aI51
aI58
aI51
aI46
aI51
aI51
aI51
aI48
aI52
aI53
aI51
aI51
aI51
aI51
aI49
aI52
aI51
aI49
aI51
aI51
aI49
aI51
aI51
aI51
aI69
aI51
aI51
aI51
aI51
aI52
aI49
aI51
aI51
aI51
aI63
aI51
aI50
aI51
aI48
aI51
aI51
aI51
aI51
aI51
aI51
aI48
aI51
aI49
aI51
aI51
aI54
aI52
aI52
aI52
aI52
aI52
aI52
aI52
aI45
aI72
aI63
aI47
aI51
aI51
aI51
aI46
aI51
aI50
aI51
aI51
aI51
aI51
aI51
aI51
aI51
aI51
aI51
aI51
aI48
aI51
aI51
aI45
aI42
aI41
aI51
aI51
aI51
aI69
aI52
aI51
aI51
aI48
aI51
aI51
aI51
aI51
aI46
aI51
aI50
aI48
aI51
aI46
aI52
aI52
aI52
aI52
aI52
aI52
aI48
aI51
aI51
aI51
aI51
aI63
aI51
aI51
aI51
aI51
aI51
aI46
aI51
aI51
aI51
aI51
aI51
aI51
aI51
aI51
aI51
aI51
aI51
aI47
aI51
aI42
aI51
aI51
aI51
aI51
aI63
aI51
aI51
aI51
aI51
aI51
aI51
aI46
aI68
aI67
aI51
aI51
aI51
aI51
aI51
aI51
aI52
aI51
aI56
aI52
aI51
aI51
aI51
aI65
aI51
aI51
aI39
aI51
aI66
aI41
aI51
aI51
aI51
aI48
aI51
aI51
aI51
aI51
aI51
aI51
aI58
aI41
aI51
aI51
aI51
aI51
aI45
aI51
aI51
aI51
aI51
aI51
aI51
aI51
aI47
aI51
aI51
aI51
aI51
aI51
aI51
aI51
aI51
aI51
aI51
aI51
aI51
aI51
aI41
aI51
aI51
aI51
aI51
aI46
aI48
aI51
aI51
aI51
aI51
aI47
aI51
aI51
aI51
aI51
aI51
aI51
aI51
aI51
aI45
aI51
aI51
aI61
aI51
aI51
aI53
aI51
aI52
aI51
aI62
aI51
aI46
aI51
aI51
aI51
aI59
aI51
aI69
aI42
aI51
aI44
aI51
aI49
aI51
aI61
aI51
aI51
aI51
aI51
aI51
aI51
aI51
aI51
aI51
aI51
aI51
aI51
aI48
aI66
aI52
aI52
aI52
aI52
aI52
aI52
aI52
aI52
aI51
aI51
aI51
aI48
aI43
aI69
aI52
aI52
aI52
aI52
aI52
aI51
aI51
aI51
aI51
aI51
aI51
aI51
aI51
aI51
aI51
aI51
aI62
aI51
aI51
aI54
aI51
aI51
aI44
aI51
aI51
aI50
aI51
aI51
aI51
aI51
aI51
aI51
aI51
aI51
aI53
aI51
aI46
aI51
aI55
aI51
aI51
aI51
aI51
aI63
aI63
aI51
aI51
aI51
aI51
aI51
aI46
aI51
aI51
aI51
aI51
aI51
aI51
aI51
aI51
aI51
aI48
aI51
aI51
aI51
aI51
aI51
aI51
aI45
aI55
aI47
aI51
aI51
aI51
aI51
aI51
aI51
aI51
aI51
aI51
aI51
aI51
aI51
aI51
aI53
aI51
aI51
aI51
aI51
aI51
aI51
aI51
aI51
aI51
aI51
aI51
aI51
aI51
aI51
aI51
aI51
aI51
aI51
aI62
aI51
aI51
aI51
aI51
aI51
aI51
aI51
aI69
aI51
aI51
aI53
aI51
aI61
aI51
aI51
aI51
aI61
aI51
aI50
aI51
aI51
aI51
aI51
aI51
aI61
aI51
aI51
aI51
aI51
aI51
aI48
aI51
aI51
aI51
aI51
aI51
aI51
aI51
aI51
aI51
aI51
aI51
aI51
aI51
aI51
aI51
aI51
aI51
aI49
aI51
aI51
aI51
aI51
aI51
aI51
aI51
aI44
aI51
aI50
aI48
aI51
aI51
aI51
aI51
aI62
aI51
aI51
aI51
aI56
aI51
aI51
aI46
aI51
aI51
aI51
aI51
aI51
aI51
aI51
aI51
aI47
aI52
aI52
aI61
aI52
aI52
aI52
aI52
aI53
aI52
aI52
aI46
aI51
aI51
aI51
aI51
aI51
aI51
aI48
aI51
aI51
aI51
aI51
aI51
aI51
aI50
aI61
aI51
aI48
aI48
aI65
aI59
aI46
aI51
aI51
aI58
aI51
aI51
aI63
aI47
aI42
aI52
aI52
aI56
aI52
aI52
aI51
aI55
aI58
aI51
aI51
aI51
aI51
aI60
aI47
aI51
aI51
aI51
aI48
aI52
aI51
aI57
aI51
aI51
aI51
aI51
aI44
aI51
aI51
aI51
aI51
aI51
aI42
aI44
aI51
aI51
aI51
aI51
aI51
aI51
aI51
aI51
aI51
aI51
aI51
aI51
aI51
aI51
aI52
aI51
aI51
aI51
aI51
aI48
aI52
aI51
aI51
aI51
aI51
aI39
aI47
aI52
aI52
aI38
aI50
aI51
aI51
aI51
aI51
aI51
aI51
aI51
aI51
aI51
aI52
aI48
aI50
aI39
aI52
aI47
aI52
aI52
aI52
aI52
aI46
aI53
aI43
aI49
aI49
aI52
aI52
aI52
aI48
aI48
aI55
aI55
aI55
aI55
aI55
aI45
aI52
aI47
aI52
aI55
aI52
aI39
aI51
aI44
aI51
aI42
aI51
aI51
aI51
aI51
aI51
aI51
aI48
aI51
aI51
aI51
aI51
aI51
aI51
aI51
aI51
aI51
aI42
aI39
aI51
aI42
aI45
aI51
aI51
aI51
aI51
aI51
aI60
aI51
aI51
aI45
aI51
aI51
aI51
aI46
aI51
aI48
aI51
aI51
aI51
aI62
aI48
aI51
aI51
aI46
aI60
aI51
aI51
aI51
aI51
aI51
aI51
aI47
aI51
aI51
aI51
aI51
aI51
aI52
aI51
aI48
aI51
aI51
aI51
aI51
aI51
aI51
aI51
aI51
aI51
aI51
aI49
aI51
aI44
aI51
aI51
aI49
aI43
aI51
aI51
aI51
aI51
aI51
aI45
aI51
aI51
aI51
aI60
aI51
aI58
aI51
aI51
aI51
aI47
aI51
aI52
aI51
aI51
aI51
aI51
aI51
aI51
aI51
aI51
aI51
aI42
aI51
aI51
aI51
aI51
aI51
aI44
aI51
aI51
aI51
aI44
aI51
aI51
aI51
aI51
aI46
aI51
aI52
aI51
aI49
aI51
aI51
aI51
aI51
aI46
aI51
aI51
aI51
aI51
aI51
aI45
aI51
aI42
aI47
aI51
aI51
aI51
aI51
aI51
aI51
aI51
aI39
aI51
aI51
aI51
aI50
aI51
aI49
aI51
aI51
aI51
aI51
aI51
aI51
aI51
aI46
aI51
aI51
aI46
aI51
aI51
aI51
aI51
aI51
aI51
aI51
aI40
aI51
aI51
aI51
aI51
aI59
aI47
aI51
aI51
aI51
aI51
aI51
aI51
aI42
aI51
aI51
aI51
aI51
aI51
aI51
aI51
aI48
aI51
aI51
aI51
aI51
aI47
aI47
aI51
aI51
aI51
aI51
aI41
aI51
aI51
aI51
aI48
aI51
aI51
aI51
aI58
aI51
aI51
aI51
aI44
aI51
aI51
aI51
aI51
aI48
aI47
aI51
aI51
aI51
aI41
aI51
aI44
aI51
aI51
aI51
aI58
aI51
aI48
aI51
aI51
aI44
aI51
aI51
aI51
aI51
aI42
aI51
aI51
aI48
aI47
aI51
aI51
aI40
aI51
aI51
aI51
aI51
aI51
aI39
aI51
aI51
aI61
aI51
aI51
aI51
aI51
aI48
aI51
aI51
aI51
aI51
aI51
aI51
aI51
aI49
aI51
aI51
aI51
aI51
aI51
aI51
aI51
aI51
aI51
aI51
aI51
aI51
aI51
aI51
aI40
aI44
aI51
aI51
aI51
aI51
aI51
aI51
aI52
aI52
aI48
aI59
aI52
aI48
aI51
aI51
aI48
aI51
aI51
aI51
aI57
aI58
aI48
aI51
aI42
aI51
aI51
aI51
aI51
aI39
aI51
aI51
aI51
aI51
aI51
aI51
aI48
aI51
aI51
aI51
aI51
aI51
aI51
aI51
aI51
aI47
aI51
aI46
aI51
aI61
aI51
aI48
aI46
aI51
aI39
aI51
aI51
aI51
aI39
aI47
aI51
aI51
aI51
aI39
aI51
aI51
aI51
aI51
aI48
aI46
aI45
aI47
aI51
aI51
aI48
aI51
aI51
aI51
aI48
aI51
aI57
aI51
aI61
aI51
aI51
aI51
aI51
aI46
aI51
aI51
aI51
aI51
aI51
aI51
aI51
aI51
aI51
aI51
aI51
aI51
aI51
aI51
aI51
aI42
aI47
aI51
aI48
aI51
aI61
aI51
aI51
aI51
aI51
aI49
aI51
aI51
aI51
aI51
aI51
aI41
aI51
aI51
aI51
aI51
aI40
aI51
aI51
aI62
aI51
aI51
aI51
aI61
aI40
aI51
aI51
aI44
aI51
aI51
aI51
aI51
aI51
aI44
aI51
aI63
aI45
aI51
aI51
aI51
aI48
aI51
aI51
aI51
aI51
aI51
aI51
aI39
aI51
aI39
aI51
aI51
aI51
aI51
aI51
aI46
aI51
aI51
aI51
aI51
aI51
aI51
aI51
aI48
aI51
aI45
aI51
aI48
aI51
aI51
aI51
aI51
aI47
aI56
aI51
aI39
aI51
aI51
aI51
aI51
aI51
aI51
aI61
aI51
aI51
aI40
aI51
aI51
aI51
aI51
aI51
aI51
aI51
aI51
aI51
aI51
aI51
aI51
aI51
aI51
aI51
aI46
aI51
aI41
aI51
aI51
aI51
aI51
aI51
aI51
aI51
aI46
aI43
aI51
aI51
aI58
aI51
aI51
aI46
aI51
aI51
aI51
aI51
aI51
aI51
aI52
aI51
aI51
aI42
aI51
aI51
aI51
aI51
aI51
aI51
aI51
aI51
aI51
aI51
aI51
aI51
aI51
aI51
aI45
aI42
aI51
aI51
aI51
aI51
aI51
aI51
aI51
aI51
aI39
aI60
aI51
aI51
aI51
aI51
aI51
aI51
aI51
aI51
aI51
aI51
aI46
aI51
aI52
aI51
aI44
aI51
aI51
aI44
aI51
aI51
aI42
aI51
aI51
aI46
aI51
aI51
aI62
aI51
aI51
aI51
aI51
aI51
aI47
aI51
aI51
aI51
aI40
aI51
aI51
aI51
aI51
aI51
aI47
aI51
aI51
aI51
aI45
aI51
aI51
aI51
aI51
aI51
aI51
aI51
aI51
aI40
aI49
aI40
aI51
aI47
aI51
aI51
aI42
aI51
aI51
aI51
aI51
aI46
aI51
aI51
aI51
aI51
aI51
aI51
aI46
aI51
aI46
aI51
aI46
aI51
aI39
aI51
aI51
aI51
aI63
aI51
aI51
aI51
aI51
aI51
aI51
aI51
aI42
aI51
aI51
aI51
aI51
aI52
aI51
aI51
aI51
aI51
aI51
aI51
aI51
aI51
aI51
aI39
aI48
aI51
aI51
aI51
aI46
aI51
aI51
aI51
aI51
aI51
aI51
aI51
aI51
aI51
aI47
aI51
aI51
aI51
aI51
aI42
aI51
aI51
aI51
aI51
aI51
aI51
aI51
aI51
aI51
aI51
aI42
aI51
aI51
aI51
aI51
aI51
aI61
aI51
aI51
aI51
aI51
aI48
aI52
aI52
aI52
aI52
aI52
aI52
aI42
aI51
aI49
aI48
aI45
aI51
aI42
aI51
aI51
aI51
aI51
aI51
aI51
aI51
aI51
aI51
aI44
aI51
aI51
aI52
aI51
aI51
aI56
aI51
aI51
aI51
aI51
aI42
aI44
aI51
aI51
aI39
aI51
aI51
aI51
aI51
aI46
aI40
aI51
aI51
aI51
aI51
aI51
aI51
aI51
aI51
aI51
aI51
aI51
aI51
aI51
aI51
aI51
aI51
aI51
aI51
aI51
aI51
aI51
aI51
aI39
aI51
aI51
aI59
aI51
aI51
aI51
aI51
aI46
aI52
aI48
aI51
aI51
aI40
aI51
aI46
aI51
aI75
aI52
aI52
aI52
aI52
aI52
aI52
aI42
aI52
aI60
aI52
aI57
aI48
aI52
aI39
aI52
aI52
aI52
aI51
aI41
aI51
aI52
aI52
aI46
aI51
aI51
aI52
aI46
aI51
aI51
aI51
aI62
aI51
aI56
aI49
aI75
aI60
aI74
aI74
aI46
aI52
aI75
aI75
aI75
aI75
aI75
aI45
aI75
aI48
aI75
aI75
aI46
aI60
aI41
aI75
aI46
aI61
aI42
aI74
aI56
aI43
aI75
aI40
aI45
aI75
aI75
aI75
aI75
aI76
aI47
aI75
aI75
aI75
aI50
aI75
aI75
aI75
aI75
aI75
aI73
aI75
aI44
aI75
aI75
aI75
aI75
aI75
aI75
aI75
aI46
aI75
aI47
aI87
aI75
aI51
aI75
aI75
aI75
aI59
aI40
aI56
aI46
aI75
aI39
aI62
aI75
aI75
aI75
aI74
aI75
aI75
aI75
aI75
aI75
aI73
aI75
aI75
aI52
aI75
aI75
aI75
aI75
aI75
aI75
aI75
aI75
aI47
aI75
aI75
aI73
aI74
aI75
aI75
aI46
aI75
aI75
aI75
aI75
aI44
aI46
aI46
aI45
aI46
aI75
aI75
aI75
aI75
aI75
aI56
aI44
aI75
aI75
aI51
aI75
aI42
aI63
aI40
aI60
aI46
aI75
aI75
aI44
aI75
aI75
aI62
aI75
aI69
aI71
aI75
aI68
aI71
aI75
aI69
aI76
aI75
aI68
aI75
aI75
aI75
aI75
aI75
aI75
aI75
aI75
aI48
aI46
aI61
aI76
aI75
aI75
aI75
aI75
aI69
aI75
aI75
aI75
aI75
aI75
aI39
aI75
aI75
aI75
aI75
aI75
aI75
aI44
aI66
aI75
aI72
aI75
aI75
aI60
aI44
aI75
aI75
aI75
aI79
aI75
aI74
aI75
aI75
aI73
aI75
aI75
aI52
aI75
aI75
aI57
aI43
aI90
aI90
aI90
aI82
aI115
aI90
aI90
aI89
aI90
aI90
aI90
aI90
aI90
aI88
aI90
aI90
aI90
aI90
aI90
aI89
aI90
aI77
aI90
aI86
aI44
aI90
aI47
aI60
aI90
aI90
aI85
aI90
aI90
aI90
aI135
aI90
aI90
aI90
aI90
aI89
aI89
aI90
aI90
aI90
aI90
aI90
aI71
aI90
aI90
aI71
aI90
aI90
aI71
aI90
aI90
aI90
aI71
aI40
aI90
aI90
aI90
aI90
aI71
aI90
aI90
aI90
aI90
aI40
aI90
aI53
aI52
aI51
aI65
aI74
aI74
aI75
aI90
aI75
aI91
aI94
aI59
aI69
aI66
aI77
aI51
aI75
aI75
aI75
aI75
aI75
aI56
aI75
aI75
aI75
aI75
aI75
aI75
aI70
aI75
aI74
aI75
aI75
aI85
aI39
aI53
aI75
aI75
aI75
aI75
aI75
aI75
aI63
aI53
aI75
aI75
aI75
aI75
aI56
aI78
aI82
aI90
aI90
aI40
aI90
aI90
aI89
aI90
aI45
aI90
aI91
aI75
aI93
aI88
aI75
aI75
aI40
aI75
aI59
aI75
aI75
aI66
aI108
aI74
aI75
aI42
aI75
aI75
aI75
aI75
aI75
aI69
aI75
aI85
aI77
aI73
aI75
aI75
aI75
aI75
aI75
aI75
aI66
aI75
aI67
aI75
aI85
aI75
aI75
aI75
aI71
aI75
aI52
aI87
aI71
aI75
aI75
aI71
aI75
aI75
aI51
aI71
aI93
aI91
aI75
aI75
aI66
aI75
aI75
aI75
aI75
aI55
aI39
aI75
aI75
aI47
aI75
aI46
aI74
aI41
aI73
aI75
aI75
aI75
aI75
aI71
aI75
aI71
aI75
aI44
aI75
aI71
aI75
aI87
aI91
aI75
aI71
aI44
aI65
aI58
aI79
aI75
aI75
aI75
aI46
aI75
aI75
aI75
aI68
aI75
aI66
aI75
aI75
aI75
aI71
aI71
aI75
aI71
aI75
aI71
aI89
aI71
aI70
aI71
aI75
aI71
aI75
aI69
aI71
aI71
aI75
aI71
aI71
aI75
aI71
aI71
aI71
aI71
aI44
aI41
aI75
aI75
aI61
aI75
aI72
aI75
aI66
aI77
aI53
aI75
aI75
aI75
aI75
aI75
aI75
aI75
aI55
aI75
aI85
aI75
aI75
aI52
aI75
aI75
aI75
aI75
aI75
aI75
aI75
aI44
aI62
aI75
aI75
aI75
aI41
aI75
aI75
aI69
aI75
aI91
aI74
aI75
aI75
aI75
aI75
aI75
aI75
aI65
aI75
aI75
aI75
aI75
aI75
aI75
aI92
aI62
aI75
aI75
aI75
aI93
aI75
aI75
aI88
aI90
aI47
aI73
aI46
aI71
aI71
aI75
aI58
aI71
aI92
aI75
aI75
aI75
aI56
aI55
aI65
aI75
aI45
aI75
aI65
aI75
aI75
aI75
aI75
aI75
aI67
aI75
aI75
aI75
aI75
aI75
aI75
aI41
aI87
aI90
aI90
aI90
aI75
aI50
aI56
aI75
aI73
aI60
aI75
aI65
aI75
aI75
aI68
aI69
aI74
aI69
aI74
aI75
aI75
aI71
aI75
aI75
aI75
aI56
aI75
aI75
aI75
aI75
aI75
aI75
aI63
aI75
aI75
aI66
aI75
aI75
aI75
aI75
aI75
aI75
aI75
aI75
aI75
aI75
aI75
aI75
aI75
aI75
aI75
aI64
aI75
aI75
aI75
aI75
aI75
aI75
aI75
aI75
aI75
aI75
aI67
aI46
aI66
aI64
aI75
aI82
aI75
aI75
aI75
aI65
aI75
aI75
aI74
aI67
aI75
aI40
aI75
aI44
aI75
aI75
aI76
aI75
aI75
aI75
aI75
aI75
aI75
aI75
aI51
aI75
aI73
aI68
aI75
aI75
aI75
aI40
aI75
aI44
aI75
aI75
aI43
aI75
aI86
aI75
aI75
aI75
aI75
aI71
aI75
aI75
aI75
aI75
aI41
aI68
aI71
aI77
aI75
aI75
aI61
aI75
aI58
aI71
aI51
aI75
aI77
aI75
aI75
aI75
aI75
aI66
aI67
aI75
aI75
aI75
aI75
aI58
aI66
aI74
aI44
aI75
aI57
aI75
aI75
aI61
aI75
aI75
aI75
aI75
aI65
aI75
aI75
aI75
aI45
aI75
aI75
aI75
aI42
aI75
aI39
aI75
aI75
aI75
aI75
aI41
aI75
aI75
aI75
aI75
aI73
aI60
aI57
aI75
aI75
aI71
aI56
aI75
aI74
aI66
aI75
aI66
aI38
aI75
aI75
aI75
aI75
aI75
aI59
aI76
aI50
aI53
aI75
aI66
aI64
aI75
aI75
aI75
aI75
aI59
aI75
aI75
aI75
aI44
aI75
aI75
aI74
aI43
aI39
aI74
aI75
aI67
aI75
aI69
aI75
aI75
aI75
aI67
aI75
aI75
aI75
aI75
aI75
aI75
aI75
aI75
aI74
aI75
aI75
aI75
aI50
aI75
aI75
aI69
aI75
aI75
aI39
aI75
aI75
aI75
aI66
aI75
aI74
aI75
aI67
aI74
aI77
aI53
aI39
aI75
aI65
aI75
aI75
aI66
aI47
aI67
aI74
aI39
aI75
aI75
aI75
aI75
aI75
aI75
aI75
aI75
aI50
aI70
aI75
aI75
aI75
aI75
aI75
aI75
aI75
aI75
aI74
aI75
aI68
aI75
aI41
aI75
aI75
aI75
aI75
aI75
aI75
aI75
aI75
aI75
aI75
aI65
aI47
aI68
aI63
aI75
aI54
aI75
aI75
aI75
aI75
aI74
aI75
aI75
aI75
aI65
aI45
aI75
aI75
aI75
aI75
aI64
aI75
aI73
aI71
aI75
aI75
aI75
aI53
aI75
aI75
aI75
aI75
aI67
aI75
aI75
aI74
aI51
aI75
aI75
aI45
aI75
aI46
aI75
aI75
aI69
aI75
aI75
aI74
aI75
aI75
aI75
aI65
aI75
aI75
aI75
aI65
aI75
aI75
aI75
aI68
aI75
aI75
aI75
aI75
aI74
aI73
aI47
aI63
aI75
aI75
aI75
aI75
aI75
aI39
aI75
aI75
aI41
aI67
aI47
aI39
aI75
aI39
aI76
aI75
aI74
aI75
aI75
aI75
aI46
aI75
aI74
aI75
aI75
aI75
aI39
aI39
aI67
aI75
aI75
aI75
aI75
aI76
aI75
aI67
aI75
aI75
aI75
aI74
aI75
aI75
aI75
aI75
aI74
aI75
aI75
aI74
aI75
aI75
aI67
aI78
aI50
aI75
aI73
aI75
aI75
aI75
aI75
aI75
aI109
aI75
aI75
aI41
aI75
aI75
aI75
aI74
aI75
aI75
aI75
aI59
aI75
aI68
aI75
aI75
aI75
aI75
aI75
aI42
aI74
aI75
aI75
aI75
aI75
aI75
aI75
aI46
aI75
aI75
aI75
aI75
aI75
aI62
aI75
aI75
aI75
aI75
aI75
aI75
aI75
aI75
aI75
aI75
aI75
aI75
aI75
aI75
aI64
aI75
aI71
aI73
aI75
aI75
aI75
aI75
aI75
aI41
aI75
aI75
aI75
aI75
aI45
aI75
aI40
aI75
aI50
aI75
aI75
aI77
aI75
aI75
aI47
aI75
aI75
aI75
aI75
aI75
aI75
aI75
aI75
aI56
aI75
aI75
aI75
aI73
aI57
aI75
aI62
aI67
aI75
aI60
aI65
aI75
aI73
aI75
aI65
aI75
aI75
aI75
aI75
aI75
aI75
aI75
aI75
aI75
aI63
aI75
aI71
aI75
aI69
aI52
aI75
aI75
aI75
aI75
aI75
aI67
aI75
aI74
aI75
aI75
aI44
aI75
aI75
aI75
aI75
aI75
aI75
aI65
aI53
aI41
aI75
aI75
aI74
aI75
aI75
aI46
aI75
aI75
aI75
aI64
aI75
aI75
aI75
aI75
aI75
aI75
aI71
aI74
aI71
aI75
aI47
aI75
aI67
aI75
aI75
aI71
aI75
aI75
aI75
aI75
aI75
aI75
aI75
aI75
aI39
aI75
aI66
aI71
aI75
aI75
aI75
aI75
aI75
aI75
aI74
aI75
aI74
aI75
aI75
aI75
aI56
aI75
aI44
aI75
aI75
aI75
aI75
aI75
aI75
aI75
aI75
aI42
aI77
aI75
aI64
aI66
aI75
aI75
aI75
aI75
aI75
aI75
aI75
aI75
aI74
aI75
aI75
aI75
aI75
aI75
aI75
aI75
aI75
aI75
aI75
aI75
aI43
aI75
aI75
aI75
aI75
aI75
aI75
aI75
aI75
aI43
aI75
aI75
aI75
aI75
aI75
aI67
aI75
aI75
aI41
aI57
aI75
aI39
aI46
aI68
aI75
aI75
aI75
aI52
aI53
aI75
aI71
aI75
aI75
aI71
aI75
aI75
aI74
aI75
aI71
aI74
aI75
aI71
aI40
aI67
aI75
aI75
aI43
aI74
aI38
aI74
aI65
aI74
aI75
aI75
aI75
aI75
aI75
aI75
aI67
aI75
aI67
aI75
aI75
aI47
aI76
aI74
aI75
aI67
aI75
aI75
aI73
aI75
aI75
aI63
aI65
aI75
aI75
aI41
aI75
aI75
aI75
aI69
aI46
aI63
aI75
aI71
aI75
aI75
aI74
aI75
aI75
aI68
aI75
aI75
aI75
aI75
aI74
aI71
aI53
aI75
aI75
aI75
aI76
aI75
aI75
aI68
aI75
aI75
aI67
aI52
aI75
aI75
aI67
aI74
aI75
aI75
aI42
aI75
aI42
aI74
aI75
aI75
aI75
aI75
aI47
aI75
aI75
aI68
aI74
aI72
aI75
aI75
aI75
aI74
aI75
aI75
aI75
aI47
aI75
aI74
aI75
aI75
aI75
aI75
aI43
aI75
aI75
aI75
aI75
aI38
aI74
aI75
aI74
aI74
aI74
aI75
aI75
aI39
aI75
aI65
aI74
aI75
aI92
aI65
aI75
aI75
aI75
aI75
aI75
aI59
aI74
aI75
aI74
aI43
aI61
aI75
aI75
aI45
aI75
aI75
aI75
aI75
aI74
aI74
aI75
aI75
aI67
aI75
aI75
aI75
aI75
aI75
aI43
aI67
aI42
aI75
aI76
aI61
aI75
aI45
aI75
aI75
aI75
aI42
aI67
aI75
aI62
aI75
aI75
aI75
aI74
aI75
aI75
aI75
aI75
aI75
aI75
aI75
aI75
aI75
aI75
aI75
aI75
aI66
aI75
aI75
aI74
aI75
aI56
aI73
aI75
aI75
aI75
aI75
aI75
aI75
aI75
aI58
aI75
aI74
aI46
aI67
aI75
aI75
aI74
aI75
aI75
aI45
aI75
aI75
aI75
aI75
aI74
aI43
aI75
aI75
aI75
aI75
aI75
aI75
aI74
aI75
aI75
aI75
aI71
aI74
aI75
aI43
aI70
aI75
aI75
aI75
aI75
aI75
aI75
aI64
aI75
aI45
aI75
aI75
aI75
aI75
aI75
aI38
aI52
aI75
aI43
aI75
aI75
aI74
aI75
aI75
aI89
aI58
aI75
aI75
aI75
aI75
aI66
aI75
aI75
aI75
aI56
aI75
aI75
aI73
aI75
aI75
aI75
aI69
aI75
aI92
aI94
aI75
aI75
aI75
aI75
aI75
aI75
aI75
aI75
aI86
aI75
aI75
aI61
aI75
aI60
aI75
aI74
aI74
aI75
aI75
aI75
aI75
aI75
aI94
aI56
aI75
aI68
aI75
aI71
aI75
aI71
aI75
aI75
aI75
aI75
aI75
aI75
aI75
aI75
aI75
aI75
aI75
aI71
aI75
aI90
aI90
aI90
aI51
aI94
aI75
aI45
aI39
aI69
aI90
aI75
aI63
aI75
aI75
aI67
aI75
aI75
aI75
aI75
aI75
aI64
aI75
aI75
aI75
aI75
aI75
aI75
aI59
aI47
aI75
aI75
aI75
aI75
aI75
aI44
aI75
aI75
aI45
aI75
aI75
aI75
aI52
aI75
aI75
aI90
aI67
aI75
aI75
aI75
aI43
aI75
aI64
aI75
aI57
aI75
aI75
aI75
aI75
aI75
aI75
aI75
aI75
aI75
aI90
aI75
aI90
aI75
aI75
aI89
aI57
aI90
aI66
aI90
aI90
aI90
aI75
aI75
aI90
aI75
aI88
aI75
aI46
aI75
aI66
aI75
aI75
aI67
aI88
aI75
aI67
aI75
aI75
aI75
aI75
aI75
aI75
aI51
aI75
aI89
aI90
aI85
aI62
aI75
aI75
aI92
aI75
aI75
aI75
aI90
aI75
aI52
aI75
aI90
aI70
aI75
aI90
aI75
aI58
aI69
aI90
aI90
aI75
aI75
aI90
aI90
aI75
aI75
aI38
aI54
aI75
aI39
aI75
aI75
aI90
aI43
aI75
aI90
aI65
aI75
aI75
aI75
aI41
aI75
aI57
aI45
aI71
aI75
aI88
aI75
aI75
aI89
aI75
aI75
aI65
aI75
aI57
aI75
aI75
aI75
aI93
aI90
aI90
aI75
aI68
aI75
aI86
aI90
aI90
aI90
aI90
aI91
aI60
aI75
aI75
aI54
aI75
aI75
aI66
aI75
aI65
aI75
aI75
aI74
aI75
aI74
aI75
aI91
aI88
aI77
aI94
aI75
aI75
aI75
aI75
aI75
aI75
aI38
aI75
aI75
aI53
aI75
aI75
aI75
aI88
aI46
aI75
aI75
aI75
aI39
aI75
aI75
aI91
aI65
aI75
aI66
aI75
aI75
aI75
aI75
aI63
aI75
aI94
aI75
aI69
aI61
aI91
aI75
aI75
aI75
aI67
aI47
aI62
aI75
aI75
aI75
aI67
aI75
aI50
aI75
aI75
aI75
aI41
aI75
aI75
aI75
aI75
aI75
aI75
aI75
aI75
aI75
aI43
aI61
aI75
aI47
aI64
aI75
aI74
aI39
aI75
aI75
aI75
aI66
aI75
aI65
aI75
aI60
aI75
aI68
aI75
aI63
aI75
aI73
aI75
aI41
aI75
aI75
aI75
aI75
aI75
aI75
aI75
aI55
aI75
aI75
aI67
aI40
aI75
aI75
aI57
aI75
aI63
aI69
aI75
aI75
aI75
aI75
aI56
aI53
aI75
aI75
aI75
aI75
aI75
aI75
aI75
aI74
aI75
aI75
aI75
aI89
aI41
aI63
aI75
aI75
aI93
aI68
aI75
aI75
aI75
aI75
aI75
aI75
aI67
aI75
aI75
aI67
aI75
aI47
aI75
aI75
aI75
aI75
aI75
aI75
aI75
aI75
aI75
aI75
aI75
aI75
aI75
aI66
aI75
aI75
aI75
aI75
aI41
aI71
aI73
aI69
aI75
aI75
aI54
aI75
aI75
aI75
aI56
aI65
aI74
aI75
aI75
aI75
aI75
aI75
aI75
aI75
aI65
aI75
aI68
aI52
aI71
aI68
aI75
aI75
aI77
aI75
aI75
aI75
aI75
aI75
aI75
aI69
aI74
aI75
aI75
aI63
aI75
aI75
aI63
aI74
aI73
aI75
aI75
aI75
aI75
aI75
aI75
aI75
aI75
aI75
aI56
aI77
aI75
aI74
aI75
aI44
aI75
aI53
aI42
aI74
aI52
aI57
aI75
aI75
aI75
aI75
aI75
aI75
aI75
aI75
aI75
aI65
aI66
aI74
aI75
aI75
aI75
aI54
aI55
aI75
aI75
aI75
aI41
aI74
aI75
aI75
aI75
aI75
aI75
aI73
aI75
aI75
aI67
aI65
aI75
aI75
aI75
aI74
aI75
aI75
aI75
aI67
aI75
aI88
aI75
aI75
aI45
aI67
aI75
aI75
aI75
aI75
aI75
aI75
aI75
aI75
aI75
aI75
aI75
aI59
aI75
aI62
aI75
aI75
aI75
aI75
aI61
aI75
aI75
aI75
aI75
aI75
aI75
aI92
aI44
aI75
aI75
aI75
aI75
aI75
aI42
aI75
aI88
aI75
aI75
aI75
aI75
aI75
aI75
aI74
aI75
aI75
aI75
aI75
aI42
aI75
aI75
aI75
aI75
aI66
aI75
aI58
aI66
aI75
aI65
aI74
aI75
aI75
aI75
aI75
aI75
aI75
aI65
aI75
aI44
aI56
aI75
aI75
aI75
aI75
aI75
aI75
aI75
aI75
aI75
aI40
aI75
aI40
aI75
aI73
aI75
aI75
aI94
aI75
aI75
aI65
aI71
aI75
aI77
aI68
aI75
aI75
aI75
aI75
aI75
aI75
aI60
aI79
aI91
aI75
aI75
aI75
aI66
aI68
aI75
aI75
aI75
aI75
aI65
aI75
aI75
aI75
aI75
aI75
aI75
aI40
aI75
aI63
aI75
aI75
aI75
aI42
aI75
aI75
aI57
aI75
aI69
aI75
aI40
aI75
aI44
aI75
aI75
aI75
aI75
aI53
aI88
aI75
aI39
aI74
aI62
aI75
aI75
aI75
aI77
aI75
aI75
aI75
aI71
aI75
aI75
aI75
aI75
aI75
aI75
aI42
aI75
aI75
aI75
aI75
aI75
aI60
aI75
aI75
aI50
aI75
aI75
aI75
aI75
aI75
aI43
aI75
aI75
aI69
aI75
aI75
aI75
aI75
aI75
aI75
aI75
aI75
aI75
aI46
aI74
aI58
aI43
aI75
aI75
aI87
aI75
aI75
aI75
aI75
aI74
aI67
aI75
aI75
aI75
aI75
aI75
aI75
aI75
aI71
aI75
aI74
aI75
aI75
aI75
aI75
aI75
aI75
aI75
aI75
aI75
aI66
aI60
aI75
aI75
aI75
aI75
aI75
aI39
aI75
aI75
aI75
aI75
aI89
aI75
aI75
aI39
aI45
aI75
aI51
aI89
aI74
aI67
aI75
aI40
aI75
aI51
aI75
aI75
aI74
aI69
aI75
aI75
aI75
aI75
aI75
aI75
aI45
aI58
aI75
aI75
aI75
aI68
aI75
aI75
aI75
aI75
aI75
aI63
aI75
aI75
aI87
aI75
aI75
aI75
aI66
aI63
aI75
aI75
aI75
aI75
aI74
aI56
aI75
aI61
aI75
aI88
aI75
aI75
aI75
aI75
aI75
aI75
aI74
aI67
aI61
aI73
aI75
aI75
aI67
aI75
aI75
aI75
aI75
aI75
aI75
aI75
aI75
aI75
aI75
aI73
aI75
aI75
aI75
aI42
aI75
aI46
aI75
aI66
aI75
aI76
aI56
aI67
aI75
aI74
aI75
aI75
aI74
aI50
aI75
aI75
aI66
aI75
aI75
aI51
aI75
aI75
aI75
aI75
aI62
aI75
aI75
aI75
aI75
aI75
aI57
aI75
aI75
aI75
aI47
aI46
aI75
aI38
aI75
aI66
aI75
aI75
aI52
aI39
aI65
aI74
aI75
aI90
aI75
aI41
aI64
aI75
aI75
aI75
aI75
aI75
aI75
aI75
aI75
aI75
aI75
aI70
aI42
aI75
aI75
aI75
aI75
aI75
aI75
aI75
aI75
aI75
aI40
aI75
aI75
aI75
aI94
aI52
aI75
aI75
aI52
aI65
aI42
aI75
aI75
aI75
aI75
aI75
aI65
aI75
aI75
aI68
aI90
aI69
aI65
aI90
aI74
aI88
aI75
aI75
aI60
aI75
aI86
aI75
aI51
aI75
aI90
aI75
aI90
aI71
aI62
aI53
aI90
aI92
aI75
aI89
aI50
aI90
aI90
aI90
aI90
aI75
aI69
aI47
aI90
aI90
aI43
aI77
aI90
aI75
aI90
aI75
aI47
aI90
aI90
aI90
aI40
aI75
aI90
aI75
aI90
aI90
aI67
aI90
aI90
aI90
aI90
aI63
aI43
aI75
aI75
aI92
aI75
aI90
aI61
aI69
aI90
aI90
aI90
aI75
aI63
aI90
aI90
aI50
aI44
aI90
aI88
aI75
aI75
aI90
aI75
aI69
aI90
aI90
aI90
aI65
aI91
aI75
aI88
aI71
aI75
aI91
aI75
aI75
aI92
aI71
aI75
aI66
aI45
aI90
aI90
aI90
aI90
aI71
aI69
aI90
aI90
aI90
aI90
aI44
aI44
aI90
aI90
aI90
aI91
aI75
aI71
aI51
aI75
aI71
aI67
aI88
aI63
aI43
aI73
aI75
aI75
aI57
aI91
aI75
aI75
aI75
aI71
aI57
aI91
aI75
aI75
aI91
aI65
aI75
aI75
aI75
aI75
aI75
aI75
aI57
aI75
aI75
aI71
aI75
aI91
aI75
aI75
aI75
aI75
aI71
aI93
aI90
aI44
aI91
aI75
aI75
aI75
aI70
aI71
aI74
aI71
aI66
aI87
aI75
aI75
aI75
aI75
aI75
aI75
aI63
aI64
aI75
aI57
aI75
aI75
aI50
aI75
aI75
aI65
aI75
aI47
aI77
aI46
aI75
aI75
aI86
aI92
aI75
aI75
aI75
aI75
aI75
aI74
aI66
aI75
aI75
aI75
aI75
aI60
aI75
aI75
aI75
aI73
aI75
aI52
aI75
aI75
aI75
aI75
aI75
aI75
aI75
aI75
aI75
aI75
aI75
aI57
aI75
aI75
aI75
aI75
aI75
aI75
aI75
aI75
aI75
aI58
aI88
aI43
aI75
aI43
aI75
aI75
aI75
aI75
aI75
aI75
aI75
aI75
aI75
aI75
aI75
aI75
aI75
aI39
aI59
aI61
aI75
aI74
aI46
aI75
aI75
aI75
aI71
aI75
aI75
aI75
aI66
aI75
aI75
aI75
aI71
aI75
aI41
aI75
aI75
aI75
aI75
aI75
aI75
aI75
aI73
aI75
aI64
aI67
aI89
aI67
aI71
aI66
aI75
aI57
aI75
aI75
aI58
aI75
aI75
aI75
aI65
aI75
aI74
aI75
aI75
aI75
aI75
aI74
aI75
aI75
aI75
aI75
aI75
aI63
aI74
aI45
aI75
aI75
aI75
aI75
aI75
aI75
aI75
aI75
aI75
aI57
aI75
aI50
aI75
aI75
aI71
aI75
aI40
aI75
aI75
aI75
aI75
aI75
aI75
aI75
aI75
aI75
aI75
aI75
aI75
aI44
aI75
aI75
aI75
aI75
aI45
aI74
aI69
aI57
aI75
aI75
aI74
aI75
aI75
aI75
aI41
aI75
aI57
aI75
aI75
aI75
aI74
aI75
aI75
aI75
aI75
aI75
aI71
aI75
aI75
aI75
aI75
aI40
aI75
aI65
aI77
aI74
aI75
aI75
aI57
aI69
aI75
aI73
aI75
aI75
aI75
aI75
aI75
aI75
aI75
aI73
aI75
aI73
aI75
aI75
aI75
aI75
aI77
aI75
aI75
aI75
aI71
aI59
aI75
aI75
aI75
aI75
aI75
aI57
aI75
aI74
aI65
aI75
aI64
aI75
aI75
aI75
aI75
aI48
aI69
aI75
aI75
aI75
aI72
aI75
aI75
aI75
aI75
aI56
aI75
aI75
aI75
aI55
aI75
aI44
aI67
aI75
aI75
aI75
aI75
aI75
aI44
aI75
aI75
aI59
aI65
aI57
aI75
aI75
aI63
aI75
aI67
aI75
aI69
aI75
aI75
aI75
aI75
aI75
aI66
aI75
aI50
aI75
aI75
aI67
aI75
aI75
aI75
aI75
aI75
aI75
aI75
aI75
aI66
aI75
aI75
aI71
aI58
aI75
aI75
aI44
aI75
aI75
aI75
aI74
aI75
aI75
aI38
aI75
aI75
aI75
aI65
aI75
aI75
aI75
aI75
aI75
aI75
aI60
aI75
aI52
aI75
aI75
aI75
aI75
aI75
aI74
aI42
aI71
aI74
aI75
aI74
aI75
aI75
aI56
aI65
aI74
aI56
aI75
aI75
aI75
aI75
aI75
aI75
aI74
aI75
aI57
aI75
aI75
aI75
aI75
aI75
aI75
aI75
aI75
aI75
aI75
aI67
aI74
aI75
aI75
aI75
aI73
aI75
aI75
aI73
aI68
aI75
aI75
aI75
aI75
aI75
aI77
aI75
aI75
aI56
aI75
aI75
aI75
aI63
aI75
aI75
aI75
aI75
aI59
aI58
aI66
aI75
aI65
aI75
aI75
aI69
aI75
aI41
aI75
aI63
aI75
aI43
aI75
aI75
aI63
aI77
aI45
aI75
aI62
aI75
aI75
aI65
aI75
aI75
aI47
aI75
aI75
aI75
aI73
aI75
aI75
aI66
aI75
aI75
aI74
aI63
aI75
aI75
aI75
aI75
aI75
aI75
aI75
aI55
aI75
aI75
aI41
aI75
aI39
aI71
aI75
aI75
aI75
aI61
aI75
aI75
aI75
aI53
aI75
aI75
aI65
aI75
aI75
aI75
aI75
aI73
aI75
aI50
aI75
aI75
aI44
aI75
aI38
aI75
aI73
aI75
aI63
aI75
aI75
aI75
aI75
aI75
aI75
aI75
aI75
aI75
aI75
aI75
aI75
aI75
aI66
aI74
aI75
aI75
aI69
aI92
aI40
aI75
aI75
aI75
aI75
aI75
aI75
aI75
aI67
aI71
aI75
aI75
aI75
aI66
aI75
aI47
aI75
aI75
aI75
aI75
aI67
aI44
aI64
aI75
aI75
aI75
aI75
aI57
aI77
aI41
aI75
aI75
aI75
aI75
aI75
aI75
aI75
aI71
aI75
aI75
aI75
aI75
aI75
aI75
aI75
aI42
aI75
aI75
aI75
aI91
aI66
aI75
aI75
aI64
aI75
aI75
aI75
aI75
aI47
aI75
aI75
aI75
aI66
aI75
aI75
aI44
aI75
aI58
aI75
aI75
aI74
aI66
aI75
aI75
aI75
aI61
aI75
aI57
aI75
aI62
aI75
aI75
aI75
aI60
aI92
aI75
aI75
aI75
aI75
aI75
aI75
aI75
aI75
aI90
aI75
aI75
aI75
aI77
aI47
aI68
aI75
aI63
aI45
aI75
aI75
aI75
aI75
aI93
aI75
aI59
aI75
aI92
aI75
aI75
aI75
aI47
aI75
aI74
aI75
aI75
aI75
aI90
aI90
aI90
aI90
aI56
aI75
aI90
aI69
aI75
aI90
aI90
aI90
aI75
aI90
aI62
aI75
aI51
aI55
aI67
aI75
aI50
aI75
aI75
aI75
aI71
aI90
aI66
aI90
aI90
aI86
aI75
aI90
aI90
aI94
aI90
aI90
aI90
aI75
aI90
aI91
aI75
aI75
aI75
aI60
aI90
aI75
aI90
aI90
aI75
aI90
aI71
aI71
aI75
aI90
aI75
aI90
aI50
aI90
aI75
aI45
aI90
aI75
aI90
aI90
aI92
aI62
aI75
aI64
aI69
aI75
aI61
aI75
aI75
aI74
aI75
aI59
aI75
aI75
aI90
aI90
aI90
aI90
aI47
aI63
aI63
aI75
aI75
aI75
aI90
aI40
aI90
aI75
aI63
aI75
aI75
aI89
aI90
aI65
aI47
aI63
aI75
aI75
aI75
aI90
aI47
aI75
aI90
aI89
aI90
aI75
aI90
aI42
aI90
aI44
aI70
aI62
aI71
aI75
aI90
aI90
aI90
aI90
aI90
aI90
aI52
aI71
aI90
aI63
aI75
aI75
aI91
aI67
aI75
aI63
aI75
aI75
aI53
aI70
aI90
aI90
aI90
aI90
aI90
aI91
aI71
aI75
aI62
aI91
aI75
aI91
aI72
aI39
aI58
aI86
aI59
aI62
aI75
aI75
aI75
aI39
aI91
aI56
aI75
aI75
aI75
aI88
aI65
aI90
aI90
aI90
aI71
aI91
aI75
aI75
aI88
aI91
aI75
aI75
aI91
aI42
aI43
aI73
aI72
aI44
aI75
aI91
aI75
aI75
aI88
aI68
aI75
aI62
aI75
aI75
aI66
aI75
aI71
aI75
aI75
aI75
aI75
aI91
aI75
aI58
aI75
aI75
aI75
aI94
aI91
aI75
aI75
aI90
aI77
aI75
aI64
aI67
aI75
aI62
aI75
aI50
aI62
aI89
aI75
aI65
aI39
aI64
aI75
aI44
aI75
aI75
aI75
aI75
aI75
aI75
aI75
aI75
aI75
aI40
aI75
aI75
aI75
aI65
aI65
aI75
aI91
aI63
aI75
aI75
aI75
aI75
aI65
aI75
aI75
aI75
aI58
aI75
aI67
aI88
aI75
aI75
aI75
aI59
aI75
aI64
aI75
aI57
aI75
aI75
aI52
aI75
aI46
aI75
aI75
aI75
aI75
aI75
aI75
aI75
aI75
aI40
aI75
aI75
aI52
aI75
aI75
aI75
aI75
aI75
aI65
aI75
aI75
aI75
aI75
aI61
aI75
aI75
aI77
aI75
aI71
aI64
aI75
aI75
aI75
aI73
aI75
aI75
aI75
aI75
aI59
aI75
aI75
aI75
aI75
aI69
aI75
aI65
aI42
aI75
aI75
aI75
aI52
aI75
aI75
aI75
aI75
aI75
aI75
aI75
aI75
aI75
aI75
aI75
aI57
aI74
aI75
aI75
aI75
aI75
aI75
aI75
aI75
aI75
aI75
aI75
aI75
aI40
aI75
aI47
aI75
aI75
aI39
aI75
aI75
aI75
aI75
aI75
aI75
aI65
aI75
aI47
aI75
aI75
aI74
aI46
aI60
aI42
aI73
aI75
aI75
aI43
aI75
aI75
aI75
aI75
aI75
aI63
aI75
aI74
aI75
aI75
aI75
aI75
aI47
aI72
aI75
aI74
aI75
aI75
aI75
aI75
aI75
aI75
aI75
aI58
aI75
aI75
aI75
aI75
aI75
aI58
aI59
aI75
aI75
aI75
aI75
aI73
aI42
aI75
aI75
aI75
aI65
aI46
aI75
aI75
aI75
aI75
aI75
aI74
aI75
aI75
aI77
aI75
aI52
aI57
aI75
aI75
aI75
aI75
aI75
aI74
aI75
aI75
aI75
aI75
aI75
aI44
aI75
aI75
aI75
aI51
aI47
aI75
aI75
aI75
aI75
aI75
aI75
aI75
aI40
aI75
aI43
aI75
aI67
aI39
aI76
aI42
aI71
aI58
aI75
aI63
aI75
aI75
aI60
aI66
aI75
aI75
aI75
aI75
aI57
aI47
aI75
aI75
aI65
aI47
aI59
aI75
aI74
aI74
aI66
aI75
aI75
aI75
aI75
aI73
aI52
aI39
aI43
aI75
aI56
aI65
aI75
aI62
aI75
aI75
aI75
aI75
aI75
aI75
aI75
aI75
aI75
aI73
aI75
aI75
aI75
aI75
aI75
aI75
aI75
aI75
aI59
aI39
aI75
aI75
aI63
aI75
aI75
aI75
aI75
aI75
aI75
aI65
aI75
aI51
aI75
aI75
aI66
aI75
aI75
aI75
aI75
aI75
aI59
aI91
aI71
aI75
aI75
aI74
aI75
aI75
aI74
aI75
aI75
aI75
aI61
aI75
aI63
aI75
aI73
aI73
aI75
aI43
aI75
aI75
aI75
aI40
aI75
aI50
aI75
aI66
aI42
aI57
aI75
aI75
aI75
aI42
aI64
aI75
aI75
aI65
aI75
aI75
aI75
aI75
aI75
aI64
aI65
aI65
aI75
aI75
aI75
aI75
aI75
aI66
aI65
aI75
aI75
aI75
aI75
aI75
aI39
aI75
aI75
aI75
aI75
aI75
aI76
aI75
aI75
aI61
aI75
aI75
aI75
aI64
aI75
aI75
aI75
aI63
aI39
aI75
aI75
aI75
aI75
aI44
aI73
aI46
aI75
aI75
aI75
aI75
aI75
aI75
aI75
aI75
aI75
aI39
aI75
aI60
aI75
aI75
aI75
aI75
aI75
aI71
aI46
aI75
aI75
aI41
aI75
aI63
aI75
aI39
aI75
aI75
aI65
aI75
aI75
aI74
aI75
aI73
aI63
aI39
aI75
aI75
aI58
aI71
aI40
aI44
aI39
aI75
aI75
aI73
aI75
aI75
aI42
aI75
aI75
aI75
aI58
aI75
aI75
aI65
aI75
aI75
aI75
aI75
aI65
aI75
aI75
aI75
aI75
aI75
aI71
aI75
aI75
aI75
aI75
aI75
aI75
aI75
aI65
aI75
aI75
aI75
aI75
aI75
aI75
aI75
aI66
aI64
aI75
aI75
aI75
aI66
aI75
aI73
aI75
aI75
aI75
aI75
aI75
aI65
aI44
aI75
aI66
aI75
aI73
aI75
aI75
aI75
aI75
aI75
aI75
aI75
aI66
aI74
aI75
aI75
aI75
aI75
aI45
aI75
aI75
aI61
aI75
aI63
aI44
aI65
aI75
aI46
aI75
aI75
aI75
aI46
aI64
aI75
aI75
aI73
aI75
aI57
aI75
aI75
aI75
aI75
aI57
aI75
aI63
aI75
aI75
aI39
aI75
aI51
aI75
aI75
aI74
aI75
aI74
aI66
aI75
aI75
aI75
aI75
aI75
aI75
aI75
aI44
aI75
aI75
aI58
aI39
aI43
aI75
aI75
aI74
aI75
aI75
aI67
aI75
aI63
aI66
aI75
aI69
aI75
aI42
aI75
aI75
aI73
aI75
aI63
aI74
aI75
aI75
aI56
aI41
aI75
aI75
aI75
aI75
aI66
aI93
aI75
aI75
aI75
aI75
aI75
aI75
aI74
aI75
aI75
aI59
aI75
aI39
aI75
aI66
aI75
aI64
aI73
aI75
aI75
aI56
aI75
aI47
aI75
aI75
aI63
aI73
aI75
aI75
aI75
aI75
aI75
aI75
aI75
aI75
aI75
aI75
aI75
aI75
aI75
aI75
aI75
aI75
aI39
aI75
aI75
aI75
aI71
aI42
aI75
aI75
aI75
aI75
aI74
aI75
aI59
aI76
aI75
aI75
aI63
aI75
aI75
aI59
aI75
aI66
aI75
aI75
aI75
aI75
aI75
aI75
aI75
aI74
aI74
aI63
aI75
aI92
aI39
aI75
aI75
aI75
aI75
aI75
aI75
aI62
aI71
aI75
aI41
aI75
aI75
aI71
aI75
aI50
aI75
aI75
aI75
aI93
aI75
aI75
aI57
aI75
aI62
aI75
aI75
aI75
aI59
aI75
aI75
aI75
aI75
aI58
aI75
aI75
aI75
aI75
aI75
aI64
aI75
aI75
aI75
aI75
aI42
aI43
aI74
aI62
aI75
aI67
aI62
aI75
aI75
aI75
aI75
aI75
aI75
aI76
aI46
aI75
aI75
aI75
aI75
aI75
aI64
aI75
aI75
aI67
aI75
aI74
aI63
aI75
aI75
aI75
aI40
aI75
aI62
aI74
aI50
aI75
aI75
aI73
aI40
aI65
aI75
aI75
aI75
aI75
aI75
aI75
aI75
aI69
aI75
aI75
aI75
aI75
aI75
aI63
aI75
aI69
aI75
aI75
aI75
aI93
aI75
aI73
aI75
aI75
aI75
aI75
aI75
aI75
aI73
aI75
aI88
aI71
aI75
aI71
aI53
aI75
aI62
aI44
aI75
aI75
aI75
aI75
aI75
aI64
aI43
aI75
aI75
aI75
aI75
aI75
aI69
aI75
aI75
aI75
aI75
aI75
aI75
aI74
aI75
aI74
aI74
aI75
aI75
aI75
aI46
aI75
aI75
aI75
aI75
aI75
aI75
aI75
aI75
aI75
aI75
aI75
aI75
aI75
aI75
aI74
aI75
aI39
aI75
aI75
aI75
aI75
aI75
aI94
aI71
aI91
aI75
aI71
aI75
aI75
aI75
aI75
aI75
aI75
aI75
aI75
aI75
aI75
aI75
aI75
aI75
aI75
aI66
aI75
aI91
aI67
aI75
aI43
aI75
aI60
aI75
aI39
aI93
aI75
aI75
aI75
aI75
aI75
aI75
aI75
aI70
aI75
aI75
aI87
aI75
aI75
aI40
aI86
aI75
aI62
aI75
aI75
aI75
aI91
aI75
aI74
aI75
aI75
aI40
aI75
aI75
aI62
aI61
aI43
aI75
aI75
aI75
aI75
aI66
aI75
aI75
aI75
aI75
aI77
aI75
aI75
aI75
aI75
aI90
aI50
aI39
aI90
aI75
aI90
aI91
aI75
aI75
aI75
aI91
aI71
aI75
aI75
aI41
aI75
aI75
aI48
aI75
aI86
aI90
aI90
aI64
aI58
aI75
aI75
aI75
aI75
aI88
aI63
aI75
aI75
aI75
aI41
aI64
aI75
aI75
aI57
aI75
aI85
aI87
aI90
aI90
aI75
aI62
aI75
aI57
aI86
aI90
aI90
aI74
aI41
aI47
aI90
aI90
aI90
aI90
aI90
aI90
aI65
aI69
aI90
aI90
aI90
aI39
aI90
aI90
aI63
aI75
aI44
aI75
aI75
aI60
aI70
aI75
aI75
aI75
aI67
aI64
aI75
aI75
aI75
aI75
aI75
aI75
aI63
aI62
aI89
aI90
aI62
aI64
aI64
aI75
aI75
aI90
aI61
aI90
aI90
aI91
aI75
aI90
aI93
aI90
aI64
aI75
aI69
aI90
aI89
aI90
aI40
aI90
aI90
aI90
aI90
aI88
aI75
aI61
aI75
aI86
aI77
aI75
aI74
aI72
aI44
aI75
aI75
aI75
aI90
aI43
aI75
aI62
aI65
aI75
aI75
aI75
aI75
aI64
aI61
aI75
aI75
aI71
aI75
aI64
aI39
aI75
aI63
aI75
aI75
aI75
aI75
aI75
aI75
aI75
aI75
aI88
aI75
aI75
aI75
aI64
aI75
aI71
aI75
aI75
aI57
aI75
aI75
aI75
aI75
aI75
aI62
aI75
aI75
aI56
aI75
aI75
aI75
aI75
aI75
aI41
aI62
aI61
aI75
aI40
aI43
aI75
aI75
aI75
aI75
aI74
aI75
aI75
aI62
aI75
aI75
aI65
aI73
aI64
aI75
aI74
aI75
aI75
aI75
aI39
aI73
aI39
aI75
aI39
aI75
aI64
aI75
aI75
aI75
aI75
aI64
aI75
aI75
aI75
aI69
aI62
aI75
aI75
aI57
aI75
aI75
aI56
aI75
aI68
aI72
aI75
aI75
aI46
aI75
aI65
aI75
aI75
aI42
aI90
aI38
aI90
aI90
aI75
aI75
aI75
aI75
aI75
aI75
aI75
aI90
aI75
aI75
aI75
aI73
aI75
aI75
aI75
aI75
aI75
aI75
aI75
aI53
aI39
aI73
aI75
aI75
aI75
aI75
aI75
aI75
aI75
aI74
aI75
aI86
aI66
aI75
aI75
aI75
aI75
aI73
aI75
aI75
aI75
aI75
aI75
aI75
aI75
aI75
aI57
aI75
aI75
aI75
aI75
aI75
aI75
aI75
aI75
aI75
aI75
aI75
aI75
aI75
aI75
aI75
aI69
aI75
aI47
aI74
aI51
aI66
aI75
aI42
aI75
aI46
aI75
aI75
aI75
aI47
aI38
aI75
aI66
aI63
aI42
aI75
aI75
aI66
aI75
aI53
aI75
aI75
aI75
aI75
aI75
aI58
aI75
aI75
aI75
aI75
aI53
aI75
aI46
aI75
aI75
aI75
aI75
aI75
aI75
aI75
aI58
aI74
aI75
aI75
aI75
aI75
aI75
aI75
aI75
aI75
aI75
aI75
aI75
aI75
aI75
aI73
aI75
aI75
aI75
aI75
aI75
aI75
aI71
aI75
aI59
aI75
aI75
aI75
aI74
aI75
aI75
aI75
aI75
aI63
aI42
aI75
aI75
aI75
aI64
aI75
aI75
aI75
aI75
aI50
aI75
aI75
aI43
aI75
aI75
aI75
aI75
aI75
aI75
aI56
aI75
aI75
aI64
aI75
aI75
aI74
aI56
aI75
aI75
aI75
aI75
aI78
aI73
aI75
aI75
aI75
aI75
aI75
aI57
aI75
aI75
aI75
aI75
aI75
aI75
aI74
aI75
aI75
aI71
aI66
aI75
aI75
aI75
aI45
aI75
aI74
aI75
aI75
aI75
aI61
aI75
aI63
aI75
aI50
aI75
aI66
aI75
aI64
aI57
aI75
aI75
aI75
aI67
aI74
aI75
aI75
aI75
aI75
aI75
aI71
aI75
aI62
aI75
aI65
aI75
aI75
aI75
aI42
aI62
aI75
aI75
aI63
aI75
aI75
aI75
aI75
aI71
aI75
aI75
aI75
aI75
aI74
aI75
aI75
aI75
aI75
aI75
aI88
aI75
aI75
aI46
aI75
aI63
aI45
aI75
aI66
aI66
aI75
aI75
aI63
aI75
aI75
aI43
aI75
aI75
aI75
aI66
aI59
aI75
aI75
aI75
aI63
aI75
aI41
aI75
aI90
aI75
aI75
aI75
aI75
aI75
aI75
aI75
aI75
aI62
aI66
aI75
aI75
aI67
aI75
aI60
aI75
aI75
aI75
aI75
aI75
aI88
aI75
aI60
aI75
aI75
aI75
aI75
aI75
aI75
aI72
aI75
aI75
aI94
aI75
aI75
aI75
aI75
aI75
aI75
aI57
aI62
aI74
aI60
aI75
aI75
aI75
aI75
aI66
aI75
aI75
aI75
aI58
aI71
aI45
aI75
aI75
aI75
aI75
aI75
aI94
aI75
aI94
aI56
aI75
aI75
aI73
aI75
aI75
aI65
aI73
aI75
aI75
aI75
aI39
aI62
aI75
aI75
aI59
aI75
aI75
aI75
aI75
aI47
aI75
aI75
aI41
aI75
aI75
aI75
aI63
aI75
aI75
aI75
aI75
aI75
aI75
aI69
aI75
aI75
aI77
aI57
aI44
aI75
aI75
aI75
aI61
aI88
aI75
aI75
aI83
aI45
aI75
aI75
aI75
aI64
aI75
aI75
aI71
aI75
aI75
aI75
aI75
aI64
aI75
aI90
aI44
aI39
aI88
aI43
aI90
aI64
aI75
aI90
aI90
aI90
aI89
aI90
aI90
aI90
aI90
aI91
aI90
aI90
aI90
aI41
aI90
aI90
aI63
aI90
aI45
aI64
aI90
aI90
aI90
aI39
aI89
aI90
aI90
aI90
aI90
aI42
aI90
aI90
aI90
aI90
aI90
aI57
aI90
aI46
aI90
aI90
aI66
aI62
aI69
aI90
aI90
aI88
aI78
aI90
aI57
aI90
aI90
aI90
aI90
aI86
aI90
aI45
aI89
aI90
aI62
aI90
aI90
aI90
aI68
aI90
aI65
aI90
aI90
aI90
aI90
aI90
aI87
aI90
aI90
aI90
aI90
aI90
aI88
aI90
aI90
aI90
aI90
aI45
aI90
aI90
aI90
aI62
aI62
aI89
aI90
aI53
aI90
aI90
aI90
aI90
aI85
aI90
aI90
aI90
aI90
aI90
aI91
aI90
aI90
aI90
aI90
aI90
aI90
aI90
aI90
aI51
aI89
aI90
aI65
aI63
aI90
aI90
aI90
aI90
aI90
aI90
aI88
aI63
aI90
aI62
aI90
aI90
aI90
aI90
aI51
aI62
aI90
aI90
aI90
aI90
aI90
aI90
aI90
aI90
aI60
aI90
aI90
aI64
aI59
aI90
aI90
aI64
aI90
aI90
aI90
aI75
aI90
aI58
aI90
aI57
aI90
aI90
aI90
aI63
aI64
aI57
aI90
aI90
aI90
aI90
aI90
aI90
aI84
aI90
aI90
aI90
aI90
aI62
aI90
aI90
aI90
aI91
aI91
aI88
aI90
aI44
aI90
aI90
aI90
aI65
aI42
aI90
aI90
aI90
aI90
aI57
aI90
aI90
aI42
aI90
aI90
aI57
aI90
aI43
aI90
aI90
aI90
aI90
aI90
aI90
aI90
aI90
aI90
aI90
aI90
aI90
aI61
aI90
aI50
aI90
aI65
aI90
aI90
aI90
aI67
aI86
aI90
aI90
aI88
aI90
aI81
aI63
aI90
aI90
aI90
aI90
aI66
aI90
aI90
aI51
aI90
aI62
aI90
aI90
aI90
aI90
aI90
aI90
aI90
aI90
aI90
aI87
aI90
aI43
aI90
aI90
aI90
aI45
aI90
aI90
aI90
aI56
aI90
aI90
aI90
aI90
aI90
aI90
aI90
aI90
aI88
aI90
aI45
aI90
aI90
aI90
aI90
aI90
aI52
aI90
aI90
aI90
aI90
aI90
aI71
aI62
aI90
aI90
aI90
aI90
aI90
aI90
aI62
aI60
aI90
aI71
aI90
aI90
aI85
aI90
aI90
aI69
aI90
aI90
aI90
aI90
aI90
aI55
aI90
aI90
aI51
aI90
aI90
aI90
aI90
aI90
aI47
aI89
aI71
aI90
aI89
aI39
aI90
aI90
aI90
aI91
aI56
aI89
aI90
aI62
aI39
aI90
aI90
aI90
aI86
aI90
aI54
aI90
aI86
aI90
aI51
aI90
aI90
aI43
aI90
aI90
aI90
aI89
aI90
aI90
aI90
aI232
aI90
aI90
aI90
aI71
aI91
aI90
aI90
aI90
aI85
aI90
aI90
aI90
aI90
aI90
aI90
aI90
aI56
aI90
aI90
aI91
aI90
aI90
aI90
aI90
aI51
aI90
aI53
aI90
aI90
aI90
aI90
aI66
aI90
aI90
aI90
aI90
aI90
aI90
aI90
aI90
aI90
aI90
aI66
aI90
aI90
aI90
aI63
aI90
aI63
aI71
aI42
aI65
aI90
aI90
aI84
aI90
aI91
aI66
aI90
aI84
aI91
aI90
aI87
aI63
aI90
aI90
aI90
aI90
aI90
aI91
aI90
aI62
aI77
aI90
aI90
aI90
aI89
aI90
aI90
aI90
aI90
aI90
aI90
aI90
aI90
aI90
aI62
aI65
aI90
aI90
aI90
aI57
aI47
aI90
aI89
aI40
aI90
aI90
aI89
aI90
aI62
aI90
aI90
aI89
aI90
aI91
aI85
aI90
aI90
aI90
aI90
aI90
aI90
aI90
aI90
aI90
aI90
aI90
aI90
aI90
aI90
aI90
aI58
aI90
aI63
aI90
aI90
aI90
aI53
aI90
aI90
aI90
aI90
aI87
aI90
aI90
aI90
aI63
aI86
aI90
aI63
aI90
aI90
aI90
aI90
aI40
aI71
aI90
aI90
aI63
aI90
aI90
aI90
aI44
aI40
aI90
aI90
aI89
aI90
aI88
aI90
aI63
aI90
aI90
aI90
aI90
aI62
aI90
aI63
aI40
aI90
aI90
aI62
aI39
aI90
aI90
aI90
aI90
aI90
aI44
aI90
aI90
aI90
aI53
aI90
aI53
aI90
aI63
aI89
aI90
aI90
aI90
aI55
aI90
aI90
aI90
aI90
aI90
aI66
aI90
aI90
aI90
aI90
aI90
aI90
aI90
aI84
aI51
aI50
aI62
aI90
aI90
aI66
aI90
aI54
aI90
aI61
aI90
aI50
aI52
aI90
aI89
aI40
aI89
aI90
aI85
aI47
aI90
aI90
aI90
aI90
aI90
aI90
aI90
aI88
aI62
aI90
aI62
aI90
aI90
aI40
aI90
aI90
aI58
aI90
aI90
aI90
aI90
aI90
aI90
aI63
aI91
aI88
aI90
aI90
aI90
aI39
aI90
aI63
aI90
aI90
aI90
aI90
aI90
aI90
aI90
aI90
aI66
aI90
aI91
aI90
aI90
aI51
aI63
aI71
aI90
aI68
aI61
aI90
aI90
aI91
aI90
aI90
aI90
aI90
aI90
aI86
aI90
aI90
aI90
aI90
aI66
aI90
aI90
aI90
aI90
aI88
aI63
aI90
aI90
aI90
aI90
aI90
aI90
aI90
aI90
aI90
aI87
aI90
aI89
aI63
aI90
aI90
aI90
aI70
aI90
aI90
aI40
aI90
aI90
aI90
aI90
aI90
aI90
aI88
aI62
aI90
aI52
aI90
aI91
aI90
aI56
aI89
aI66
aI90
aI90
aI55
aI90
aI90
aI90
aI90
aI90
aI62
aI90
aI90
aI90
aI90
aI90
aI88
aI90
aI90
aI90
aI90
aI62
aI90
aI90
aI90
aI63
aI90
aI90
aI62
aI53
aI90
aI90
aI90
aI90
aI41
aI90
aI77
aI87
aI89
aI90
aI90
aI63
aI90
aI63
aI90
aI90
aI90
aI63
aI90
aI90
aI90
aI90
aI87
aI90
aI90
aI87
aI65
aI90
aI54
aI90
aI87
aI86
aI90
aI90
aI90
aI90
aI90
aI90
aI90
aI90
aI90
aI90
aI90
aI62
aI63
aI90
aI84
aI59
aI90
aI90
aI90
aI90
aI90
aI90
aI89
aI62
aI54
aI90
aI62
aI43
aI91
aI90
aI90
aI90
aI90
aI90
aI90
aI90
aI90
aI90
aI90
aI51
aI66
aI90
aI90
aI70
aI90
aI90
aI84
aI90
aI90
aI62
aI91
aI90
aI90
aI88
aI90
aI90
aI90
aI90
aI40
aI90
aI90
aI90
aI90
aI89
aI90
aI90
aI62
aI63
aI90
aI90
aI90
aI90
aI90
aI90
aI90
aI90
aI90
aI90
aI90
aI86
aI98
aI90
aI90
aI90
aI90
aI63
aI90
aI90
aI90
aI90
aI90
aI61
aI91
aI90
aI90
aI61
aI90
aI90
aI90
aI90
aI90
aI62
aI67
aI90
aI90
aI90
aI90
aI90
aI61
aI90
aI90
aI90
aI90
aI62
aI61
aI90
aI90
aI91
aI90
aI90
aI87
aI90
aI91
aI66
aI90
aI90
aI90
aI90
aI90
aI90
aI54
aI90
aI90
aI90
aI90
aI90
aI90
aI90
aI90
aI90
aI90
aI262
aI91
aI62
aI51
aI91
aI91
aI91
aI91
aI91
aI75
aI71
aI88
aI90
aI91
aI75
aI91
aI75
aI75
aI91
aI61
aI75
aI40
aI89
aI91
aI91
aI75
aI54
aI42
aI62
aI90
aI91
aI50
aI91
aI41
aI91
aI75
aI75
aI75
aI88
aI91
aI75
aI50
aI75
aI75
aI68
aI67
aI91
aI91
aI75
aI75
aI75
aI45
aI75
aI52
aI75
aI75
aI75
aI75
aI75
aI75
aI75
aI58
aI64
aI75
aI75
aI73
aI75
aI92
aI90
aI91
aI67
aI91
aI63
aI39
aI91
aI66
aI42
aI91
aI86
aI56
aI90
aI71
aI88
aI90
aI75
aI71
aI39
aI51
aI90
aI75
aI50
aI75
aI75
aI75
aI75
aI75
aI75
aI75
aI75
aI75
aI56
aI75
aI75
aI75
aI75
aI40
aI75
aI54
aI75
aI75
aI75
aI75
aI75
aI56
aI75
aI75
aI58
aI69
aI75
aI66
aI75
aI69
aI75
aI75
aI75
aI75
aI75
aI65
aI75
aI75
aI75
aI75
aI75
aI75
aI66
aI56
aI75
aI71
aI75
aI75
aI65
aI75
aI75
aI75
aI75
aI71
aI75
aI66
aI62
aI75
aI63
aI75
aI75
aI75
aI75
aI71
aI62
aI92
aI75
aI75
aI75
aI67
aI75
aI75
aI75
aI40
aI52
aI76
aI75
aI75
aI88
aI69
aI40
aI75
aI75
aI75
aI75
aI75
aI75
aI75
aI62
aI67
aI65
aI73
aI73
aI63
aI73
aI73
aI73
aI73
aI73
aI73
aI72
aI73
aI73
aI73
aI73
aI73
aI73
aI73
aI66
aI73
aI73
aI73
aI73
aI73
aI73
aI73
aI73
aI72
aI73
aI73
aI73
aI73
aI73
aI67
aI73
aI71
aI73
aI73
aI73
aI73
aI71
aI73
aI53
aI41
aI56
aI73
aI73
aI73
aI73
aI73
aI73
aI73
aI73
aI73
aI73
aI73
aI73
aI73
aI53
aI73
aI73
aI73
aI73
aI72
aI73
aI73
aI73
aI73
aI73
aI73
aI73
aI73
aI73
aI73
aI62
aI73
aI73
aI73
aI73
aI73
aI73
aI62
aI63
aI73
aI73
aI73
aI73
aI73
aI66
aI73
aI67
aI73
aI71
aI73
aI73
aI72
aI73
aI73
aI73
aI73
aI62
aI53
aI73
aI73
aI58
aI73
aI42
aI74
aI73
aI43
aI73
aI73
aI68
aI73
aI73
aI73
aI48
aI73
aI73
aI73
aI73
aI73
aI73
aI63
aI73
aI45
aI73
aI73
aI73
aI73
aI73
aI73
aI73
aI45
aI67
aI73
aI73
aI54
aI73
aI73
aI45
aI73
aI73
aI73
aI73
aI73
aI73
aI73
aI73
aI73
aI73
aI61
aI73
aI73
aI73
aI73
aI73
aI73
aI63
aI73
aI73
aI73
aI73
aI73
aI71
aI73
aI74
aI73
aI73
aI86
aI55
aI75
aI75
aI75
aI55
aI61
aI73
aI65
aI73
aI73
aI73
aI73
aI73
aI53
aI73
aI73
aI73
aI75
aI75
aI75
aI75
aI67
aI71
aI73
aI73
aI73
aI73
aI61
aI73
aI61
aI62
aI40
aI73
aI73
aI73
aI73
aI42
aI73
aI73
aI63
aI54
aI73
aI73
aI62
aI63
aI73
aI58
aI73
aI73
aI73
aI73
aI73
aI73
aI73
aI73
aI73
aI73
aI73
aI73
aI73
aI73
aI73
aI73
aI73
aI73
aI55
aI73
aI73
aI73
aI73
aI65
aI73
aI73
aI69
aI69
aI73
aI73
aI73
aI73
aI73
aI73
aI65
aI73
aI73
aI73
aI73
aI73
aI73
aI73
aI73
aI73
aI73
aI50
aI73
aI73
aI73
aI73
aI73
aI73
aI73
aI71
aI73
aI91
aI73
aI73
aI73
aI73
aI73
aI90
aI73
aI73
aI73
aI71
aI73
aI40
aI73
aI73
aI73
aI73
aI73
aI73
aI58
aI53
aI71
aI73
aI73
aI73
aI62
aI92
aI73
aI73
aI73
aI73
aI73
aI73
aI73
aI73
aI73
aI88
aI43
aI65
aI73
aI73
aI73
aI73
aI73
aI73
aI73
aI86
aI59
aI73
aI73
aI73
aI73
aI73
aI73
aI73
aI73
aI73
aI73
aI73
aI73
aI73
aI73
aI73
aI73
aI73
aI73
aI73
aI73
aI73
aI73
aI67
aI73
aI73
aI73
aI73
aI73
aI73
aI75
aI73
aI73
aI73
aI72
aI73
aI73
aI73
aI73
aI73
aI73
aI73
aI61
aI73
aI55
aI73
aI73
aI73
aI73
aI73
aI73
aI73
aI61
aI73
aI73
aI73
aI88
aI63
aI63
aI55
aI59
aI73
aI73
aI73
aI62
aI87
aI89
aI63
aI50
aI88
aI88
aI54
aI92
aI73
aI73
aI87
aI88
aI88
aI88
aI58
aI73
aI40
aI88
aI88
aI87
aI86
aI86
aI88
aI88
aI48
aI88
aI66
aI88
aI88
aI88
aI88
aI88
aI88
aI88
aI89
aI48
aI88
aI88
aI88
aI88
aI88
aI88
aI88
aI88
aI40
aI88
aI88
aI86
aI91
aI90
aI54
aI75
aI89
aI90
aI90
aI90
aI90
aI65
aI69
aI91
aI91
aI47
aI50
aI75
aI91
aI75
aI75
aI75
aI75
aI71
aI75
aI65
aI75
aI75
aI73
aI91
aI69
aI91
aI75
aI89
aI75
aI75
aI75
aI75
aI75
aI56
aI75
aI88
aI74
aI75
aI75
aI75
aI75
aI75
aI75
aI75
aI75
aI65
aI75
aI65
aI90
aI75
aI75
aI73
aI73
aI73
aI73
aI73
aI73
aI40
aI73
aI73
aI73
aI73
aI73
aI73
aI73
aI73
aI57
aI86
aI72
aI58
aI73
aI58
aI73
aI73
aI47
aI42
aI54
aI73
aI73
aI73
aI65
aI72
aI73
aI73
aI68
aI50
aI73
aI73
aI73
aI65
aI73
aI73
aI43
aI73
aI73
aI73
aI73
aI73
aI73
aI73
aI73
aI60
aI73
aI73
aI65
aI88
aI65
aI75
aI75
aI71
aI74
aI75
aI41
aI65
aI75
aI71
aI60
aI75
aI75
aI69
aI75
aI54
aI60
aI75
aI75
aI65
aI73
aI39
aI66
aI73
aI73
aI73
aI69
aI73
aI73
aI73
aI73
aI42
aI73
aI58
aI73
aI73
aI73
aI73
aI65
aI72
aI73
aI73
aI73
aI73
aI73
aI86
aI73
aI73
aI73
aI73
aI73
aI72
aI58
aI73
aI73
aI73
aI71
aI73
aI73
aI73
aI73
aI73
aI73
aI73
aI62
aI55
aI73
aI72
aI75
aI73
aI62
aI73
aI73
aI71
aI73
aI73
aI73
aI73
aI73
aI73
aI73
aI73
aI73
aI73
aI73
aI73
aI73
aI73
aI75
aI73
aI73
aI48
aI67
aI73
aI48
aI73
aI73
aI73
aI61
aI73
aI73
aI73
aI73
aI48
aI73
aI73
aI65
aI73
aI73
aI42
aI73
aI73
aI73
aI73
aI65
aI63
aI73
aI73
aI73
aI73
aI73
aI73
aI73
aI73
aI73
aI73
aI73
aI72
aI73
aI73
aI73
aI73
aI56
aI39
aI73
aI73
aI73
aI73
aI73
aI73
aI73
aI56
aI73
aI73
aI73
aI73
aI73
aI73
aI73
aI73
aI73
aI39
aI72
aI73
aI73
aI48
aI61
aI73
aI73
aI56
aI60
aI73
aI73
aI73
aI73
aI73
aI73
aI67
aI73
aI73
aI73
aI73
aI63
aI73
aI53
aI73
aI57
aI73
aI56
aI73
aI73
aI73
aI60
aI72
aI73
aI73
aI73
aI65
aI73
aI60
aI73
aI73
aI69
aI73
aI72
aI73
aI73
aI73
aI73
aI49
aI73
aI73
aI72
aI73
aI73
aI69
aI73
aI73
aI73
aI73
aI56
aI73
aI73
aI73
aI73
aI73
aI73
aI73
aI40
aI73
aI73
aI73
aI53
aI73
aI73
aI73
aI56
aI73
aI73
aI73
aI75
aI63
aI73
aI59
aI73
aI73
aI73
aI73
aI73
aI60
aI73
aI53
aI73
aI73
aI73
aI73
aI73
aI73
aI73
aI46
aI73
aI73
aI63
aI58
aI73
aI73
aI73
aI73
aI73
aI73
aI73
aI73
aI65
aI73
aI73
aI53
aI73
aI73
aI73
aI73
aI48
aI73
aI73
aI73
aI73
aI73
aI69
aI73
aI73
aI73
aI73
aI73
aI42
aI73
aI73
aI73
aI73
aI73
aI73
aI72
aI73
aI69
aI73
aI50
aI73
aI73
aI65
aI73
aI73
aI53
aI61
aI73
aI73
aI73
aI73
aI73
aI68
aI63
aI73
aI57
aI73
aI73
aI73
aI60
aI73
aI73
aI73
aI73
aI73
aI73
aI73
aI73
aI73
aI67
aI73
aI73
aI73
aI73
aI73
aI73
aI72
aI73
aI73
aI73
aI73
aI73
aI44
aI90
aI71
aI56
aI73
aI68
aI73
aI73
aI60
aI73
aI73
aI73
aI62
aI73
aI73
aI56
aI73
aI73
aI73
aI73
aI73
aI56
aI73
aI66
aI39
aI66
aI69
aI73
aI73
aI88
aI66
aI86
aI73
aI73
aI73
aI73
aI73
aI73
aI67
aI73
aI73
aI44
aI73
aI39
aI63
aI45
aI73
aI45
aI67
aI73
aI73
aI39
aI73
aI73
aI73
aI73
aI73
aI73
aI73
aI65
aI73
aI73
aI73
aI42
aI73
aI73
aI73
aI71
aI90
aI73
aI69
aI60
aI73
aI73
aI73
aI73
aI73
aI73
aI90
aI73
aI70
aI73
aI73
aI73
aI73
aI69
aI73
aI73
aI61
aI88
aI87
aI59
aI66
aI88
aI88
aI88
aI88
aI88
aI88
aI49
aI88
aI88
aI88
aI88
aI88
aI88
aI88
aI88
aI88
aI88
aI90
aI88
aI88
aI88
aI88
aI88
aI88
aI88
aI88
aI88
aI88
aI88
aI88
aI88
aI88
aI88
aI88
aI63
aI48
aI60
aI88
aI86
aI88
aI88
aI88
aI88
aI48
aI88
aI88
aI56
aI88
aI47
aI60
aI43
aI88
aI88
aI88
aI88
aI60
aI65
aI88
aI88
aI88
aI88
aI88
aI88
aI88
aI88
aI88
aI60
aI88
aI88
aI62
aI88
aI45
aI40
aI88
aI88
aI88
aI39
aI88
aI88
aI88
aI88
aI84
aI88
aI88
aI88
aI88
aI88
aI88
aI88
aI88
aI88
aI88
aI46
aI88
aI86
aI56
aI88
aI88
aI88
aI87
aI88
aI63
aI88
aI87
aI59
aI88
aI88
aI88
aI88
aI88
aI88
aI88
aI88
aI88
aI88
aI88
aI88
aI88
aI88
aI40
aI88
aI88
aI88
aI54
aI88
aI88
aI88
aI42
aI84
aI56
aI88
aI88
aI87
aI61
aI87
aI65
aI88
aI88
aI88
aI88
aI88
aI88
aI86
aI88
aI45
aI56
aI88
aI68
aI86
aI56
aI49
aI88
aI88
aI89
aI88
aI60
aI88
aI88
aI88
aI88
aI88
aI88
aI88
aI88
aI87
aI66
aI85
aI88
aI62
aI69
aI61
aI88
aI88
aI86
aI42
aI58
aI88
aI56
aI88
aI98
aI87
aI88
aI88
aI88
aI88
aI88
aI88
aI88
aI88
aI88
aI50
aI88
aI88
aI88
aI88
aI88
aI88
aI88
aI88
aI67
aI88
aI88
aI88
aI88
aI88
aI88
aI88
aI88
aI88
aI88
aI88
aI58
aI88
aI88
aI67
aI88
aI88
aI88
aI88
aI88
aI50
aI88
aI88
aI88
aI87
aI88
aI88
aI88
aI88
aI88
aI88
aI88
aI88
aI87
aI88
aI88
aI68
aI87
aI88
aI88
aI56
aI88
aI88
aI56
aI88
aI88
aI88
aI88
aI88
aI88
aI88
aI49
aI88
aI58
aI88
aI88
aI64
aI88
aI88
aI88
aI88
aI88
aI88
aI88
aI88
aI68
aI88
aI88
aI48
aI88
aI88
aI88
aI67
aI88
aI66
aI54
aI88
aI88
aI88
aI88
aI69
aI88
aI88
aI88
aI88
aI87
aI44
aI88
aI88
aI88
aI58
aI88
aI88
aI88
aI88
aI88
aI88
aI88
aI88
aI88
aI89
aI88
aI67
aI88
aI88
aI88
aI86
aI88
aI88
aI88
aI88
aI50
aI88
aI88
aI44
aI88
aI88
aI88
aI88
aI88
aI88
aI45
aI88
aI88
aI88
aI88
aI88
aI88
aI88
aI88
aI56
aI88
aI88
aI88
aI60
aI88
aI88
aI88
aI88
aI88
aI88
aI88
aI88
aI62
aI88
aI60
aI61
aI88
aI124
aI88
aI88
aI67
aI90
aI88
aI88
aI88
aI66
aI58
aI88
aI88
aI88
aI88
aI87
aI88
aI88
aI88
aI39
aI88
aI88
aI88
aI88
aI88
aI88
aI88
aI59
aI88
aI86
aI46
aI60
aI40
aI88
aI88
aI88
aI89
aI88
aI56
aI89
aI89
aI90
aI90
aI90
aI90
aI88
aI90
aI66
aI90
aI87
aI90
aI90
aI39
aI88
aI88
aI88
aI88
aI88
aI89
aI88
aI87
aI88
aI88
aI88
aI88
aI87
aI88
aI54
aI88
aI62
aI62
aI39
aI63
aI87
aI88
aI60
aI88
aI88
aI69
aI66
aI88
aI57
aI88
aI88
aI88
aI88
aI88
aI40
aI88
aI88
aI88
aI69
aI87
aI88
aI62
aI88
aI87
aI88
aI60
aI88
aI44
aI88
aI44
aI88
aI88
aI49
aI88
aI88
aI88
aI53
aI88
aI88
aI87
aI88
aI45
aI88
aI88
aI88
aI88
aI89
aI66
aI86
aI88
aI88
aI65
aI90
aI90
aI90
aI90
aI90
aI90
aI90
aI90
aI90
aI50
aI88
aI88
aI88
aI66
aI88
aI44
aI62
aI88
aI62
aI67
aI88
aI88
aI88
aI88
aI88
aI88
aI60
aI87
aI65
aI88
aI69
aI88
aI88
aI88
aI88
aI61
aI88
aI87
aI88
aI60
aI88
aI61
aI88
aI63
aI88
aI88
aI88
aI88
aI88
aI88
aI88
aI66
aI48
aI229
aI236
aI142
aI123
aI69
aI123
aI123
aI123
aI120
aI136
aI138
aI100
aI266
aI402
aI103
aI137
aI65
aI63
aI342
aI136
aI192
aI263
aI137
aI67
aI373
aI667
aI297
aI58
aI296
aI44
aI350
aI120
aI194
aI194
aI194
aI102
aI92
aI901
aI213
aI179
aI91
aI312
aI43
aI213
aI59
aI179
aI92
aI385
aI138
aI40
aI92
aI438
aI179
aI42
aI122
aI92
aI298
aI58
aI180
aI180
aI144
aI147
aI146
aI109
aI109
aI109
aI88
aI88
aI260
aI107
aI107
aI45
aI106
aI107
aI107
aI107
aI107
aI107
aI107
aI65
aI50
aI107
aI62
aI55
aI39
aI63
aI107
aI56
aI107
aI107
aI60
aI58
aI107
aI39
aI58
aI107
aI107
aI107
aI107
aI106
aI107
aI107
aI53
aI107
aI45
aI107
aI56
aI107
aI107
aI107
aI86
aI107
aI107
aI87
aI107
aI69
aI71
aI107
aI107
aI107
aI107
aI63
aI64
aI107
aI107
aI107
aI71
aI107
aI56
aI86
aI107
aI46
aI107
aI106
aI107
aI107
aI63
aI107
aI107
aI69
aI45
aI107
aI107
aI107
aI107
aI107
aI107
aI107
aI107
aI64
aI124
aI107
aI107
aI107
aI107
aI107
aI107
aI107
aI107
aI64
aI109
aI108
aI50
aI107
aI45
aI67
aI107
aI107
aI107
aI107
aI107
aI48
aI107
aI107
aI54
aI107
aI73
aI107
aI105
aI107
aI104
aI64
aI107
aI107
aI108
aI107
aI69
aI107
aI107
aI107
aI107
aI107
aI107
aI107
aI107
aI107
aI63
aI107
aI107
aI61
aI44
aI107
aI87
aI107
aI87
aI107
aI106
aI86
aI107
aI73
aI107
aI107
aI107
aI107
aI107
aI107
aI40
aI107
aI107
aI66
aI107
aI107
aI107
aI107
aI107
aI107
aI107
aI58
aI64
aI62
aI105
aI107
aI107
aI107
aI106
aI107
aI64
aI106
aI105
aI105
aI107
aI107
aI106
aI107
aI107
aI54
aI107
aI107
aI107
aI63
aI107
aI107
aI59
aI107
aI60
aI107
aI108
aI107
aI107
aI107
aI107
aI107
aI54
aI50
aI58
aI87
aI107
aI107
aI107
aI106
aI64
aI61
aI107
aI107
aI107
aI107
aI107
aI107
aI107
aI107
aI107
aI53
aI44
aI107
aI107
aI107
aI107
aI107
aI107
aI107
aI107
aI40
aI53
aI45
aI104
aI100
aI107
aI56
aI107
aI107
aI107
aI107
aI104
aI107
aI63
aI107
aI107
aI107
aI107
aI107
aI68
aI50
aI107
aI107
aI107
aI107
aI106
aI107
aI107
aI107
aI63
aI107
aI107
aI107
aI107
aI142
aI263
aI46
aI478
aI263
aI901
aI245
aI158
aI245
aI245
aI245
aI144
aI107
aI107
aI144
aI107
aI65
aI107
aI45
aI289
aI227
aI144
aI107
aI107
aI107
aI44
aI144
aI158
aI53
aI144
aI107
aI49
aI107
aI107
aI45
aI107
aI107
aI144
aI107
aI107
aI107
aI54
aI53
aI144
aI107
aI144
aI107
aI107
aI107
aI63
aI830
aI144
aI144
aI144
aI107
aI48
aI143
aI107
aI101
aI107
aI204
aI124
aI144
aI106
aI45
aI158
aI144
aI107
aI107
aI63
aI107
aI141
aI107
aI107
aI104
aI107
aI54
aI167
aI103
aI107
aI107
aI107
aI54
aI66
aI107
aI107
aI44
aI99
aI158
aI144
aI99
aI62
aI272
aI161
aI53
aI144
aI137
aI144
aI107
aI107
aI107
aI107
aI53
aI107
aI86
aI144
aI107
aI56
aI107
aI48
aI45
aI107
aI186
aI107
aI115
aI99
aI220
aI144
aI107
aI144
aI186
aI107
aI107
aI83
aI107
aI107
aI107
aI107
aI107
aI59
aI42
aI269
aI107
aI107
aI48
aI151
aI107
aI100
aI107
aI107
aI107
aI107
aI46
aI107
aI107
aI107
aI44
aI107
aI107
aI107
aI107
aI42
aI107
aI107
aI107
aI107
aI59
aI107
aI42
aI107
aI107
aI66
aI320
aI63
aI143
aI68
aI44
aI143
aI63
aI143
aI40
aI107
aI107
aI107
aI64
aI107
aI107
aI107
aI107
aI50
aI106
aI63
aI106
aI153
aI143
aI120
aI45
aI107
aI107
aI107
aI107
aI107
aI83
aI107
aI107
aI65
aI59
aI87
aI60
aI87
aI49
aI106
aI106
aI60
aI61
aI107
aI45
aI107
aI107
aI86
aI106
aI106
aI107
aI59
aI107
aI107
aI107
aI107
aI106
aI59
aI107
aI107
aI40
aI216
aI63
aI143
aI143
aI167
aI106
aI106
aI106
aI107
aI106
aI53
aI107
aI106
aI107
aI143
aI87
aI65
aI68
aI45
aI104
aI106
aI104
aI104
aI101
aI101
aI101
aI101
aI102
aI101
aI104
aI104
aI101
aI101
aI101
aI63
aI101
aI101
aI101
aI54
aI101
aI101
aI101
aI204
aI101
aI101
aI68
aI101
aI101
aI99
aI54
aI56
aI84
aI152
aI186
aI47
aI124
aI53
aI226
aI121
aI39
aI152
aI124
aI121
aI152
aI152
aI270
aI170
aI153
aI170
aI68
aI152
aI64
aI44
aI270
aI61
aI60
aI143
aI143
aI121
aI121
aI83
aI143
aI43
aI228
aI265
aI158
aI123
aI121
aI121
aI121
aI46
aI145
aI121
aI85
aI45
aI143
aI121
aI121
aI121
aI121
aI121
aI121
aI84
aI121
aI121
aI121
aI54
aI121
aI121
aI121
aI58
aI121
aI121
aI118
aI144
aI107
aI107
aI87
aI56
aI107
aI107
aI107
aI107
aI107
aI107
aI107
aI57
aI48
aI123
aI45
aI107
aI73
aI121
aI239
aI121
aI121
aI121
aI158
aI123
aI121
aI55
aI121
aI121
aI121
aI121
aI47
aI68
aI439
aI123
aI121
aI121
aI83
aI107
aI107
aI121
aI159
aI121
aI121
aI121
aI48
aI107
aI121
aI121
aI121
aI63
aI121
aI121
aI86
aI121
aI121
aI121
aI121
aI121
aI107
aI121
aI121
aI107
aI121
aI382
aI90
aI107
aI107
aI107
aI107
aI107
aI53
aI382
aI107
aI107
aI62
aI107
aI158
aI91
aI107
aI61
aI107
aI121
aI107
aI62
aI107
aI107
aI107
aI107
aI49
aI335
aI228
aI91
aI214
aI228
aI49
aI195
aI121
aI60
aI89
aI68
aI160
aI228
aI123
aI43
aI121
aI121
aI121
aI121
aI86
aI121
aI68
aI133
aI143
aI121
aI121
aI121
aI121
aI121
aI121
aI121
aI121
aI45
aI50
aI121
aI296
aI121
aI58
aI121
aI121
aI121
aI44
aI144
aI101
aI84
aI161
aI107
aI107
aI107
aI59
aI69
aI61
aI107
aI107
aI40
aI107
aI107
aI107
aI120
aI43
aI140
aI140
aI64
aI88
aI61
aI84
aI140
aI87
aI137
aI228
aI122
aI121
aI121
aI64
aI121
aI121
aI62
aI121
aI121
aI49
aI121
aI121
aI121
aI121
aI121
aI143
aI120
aI62
aI40
aI64
aI121
aI83
aI107
aI107
aI107
aI61
aI107
aI107
aI107
aI107
aI39
aI107
aI107
aI107
aI123
aI122
aI121
aI120
aI140
aI121
aI121
aI121
aI121
aI39
aI121
aI45
aI121
aI116
aI140
aI140
aI124
aI140
aI140
aI123
aI140
aI45
aI63
aI44
aI107
aI107
aI44
aI107
aI107
aI107
aI107
aI107
aI107
aI107
aI87
aI107
aI107
aI107
aI107
aI107
aI257
aI107
aI107
aI57
aI107
aI107
aI107
aI107
aI107
aI107
aI107
aI453
aI125
aI40
aI107
aI73
aI107
aI64
aI61
aI140
aI150
aI53
aI43
aI39
aI246
aI122
aI224
aI122
aI46
aI155
aI121
aI121
aI116
aI139
aI121
aI58
aI121
aI121
aI121
aI121
aI121
aI121
aI121
aI58
aI121
aI121
aI121
aI63
aI121
aI121
aI121
aI121
aI121
aI121
aI121
aI121
aI121
aI121
aI45
aI140
aI139
aI53
aI174
aI121
aI121
aI121
aI121
aI121
aI84
aI174
aI123
aI39
aI61
aI121
aI41
aI117
aI157
aI45
aI56
aI174
aI62
aI121
aI121
aI121
aI66
aI62
aI121
aI63
aI190
aI121
aI121
aI45
aI121
aI121
aI122
aI83
aI123
aI122
aI123
aI105
aI103
aI86
aI140
aI191
aI123
aI122
aI56
aI123
aI122
aI62
aI121
aI86
aI123
aI121
aI123
aI63
aI63
aI58
aI123
aI59
aI123
aI123
aI123
aI122
aI45
aI44
aI52
aI58
aI143
aI107
aI107
aI107
aI46
aI107
aI107
aI107
aI107
aI107
aI107
aI107
aI107
aI107
aI107
aI107
aI43
aI107
aI107
aI107
aI107
aI107
aI107
aI107
aI83
aI88
aI227
aI117
aI124
aI140
aI123
aI140
aI225
aI122
aI123
aI122
aI123
aI220
aI121
aI222
aI122
aI122
aI123
aI122
aI125
aI63
aI49
aI52
aI58
aI121
aI121
aI121
aI121
aI121
aI121
aI158
aI121
aI47
aI121
aI121
aI121
aI62
aI45
aI121
aI157
aI121
aI121
aI58
aI121
aI63
aI121
aI121
aI121
aI121
aI121
aI64
aI58
aI121
aI121
aI122
aI123
aI82
aI45
aI121
aI121
aI53
aI121
aI84
aI121
aI121
aI121
aI121
aI121
aI121
aI58
aI40
aI124
aI140
aI62
aI123
aI59
aI123
aI121
aI58
aI121
aI47
aI125
aI121
aI56
aI205
aI107
aI171
aI107
aI107
aI107
aI107
aI107
aI46
aI58
aI91
aI174
aI107
aI69
aI107
aI107
aI107
aI305
aI290
aI121
aI121
aI46
aI40
aI121
aI121
aI47
aI121
aI69
aI121
aI121
aI157
aI39
aI121
aI53
aI140
aI121
aI50
aI122
aI140
aI122
aI206
aI190
aI43
aI121
aI173
aI45
aI121
aI121
aI121
aI121
aI158
aI123
aI121
aI121
aI85
aI59
aI123
aI141
aI86
aI57
aI56
aI123
aI43
aI123
aI61
aI123
aI103
aI121
aI208
aI87
aI122
aI123
aI122
aI123
aI122
aI122
aI123
aI63
aI440
aI140
aI174
aI244
aI192
aI68
aI68
aI68
aI68
aI59
aI68
aI68
aI68
aI68
aI68
aI68
aI121
aI121
aI120
aI121
aI121
aI121
aI121
aI83
aI68
aI61
aI121
aI121
aI121
aI121
aI63
aI123
aI55
aI50
aI121
aI121
aI104
aI160
aI57
aI495
aI57
aI121
aI121
aI59
aI57
aI121
aI124
aI140
aI174
aI174
aI44
aI124
aI123
aI210
aI339
aI68
aI68
aI121
aI121
aI121
aI121
aI45
aI68
aI68
aI68
aI59
aI123
aI108
aI174
aI156
aI54
aI121
aI59
aI470
aI123
aI174
aI123
aI121
aI121
aI121
aI121
aI123
aI123
aI123
aI43
aI50
aI173
aI155
aI40
aI56
aI61
aI47
aI47
aI56
aI58
aI68
aI68
aI40
aI68
aI69
aI68
aI68
aI68
aI122
aI48
aI170
aI68
aI68
aI121
aI68
aI68
aI64
aI50
aI135
aI68
aI135
aI68
aI120
aI56
aI120
aI117
aI122
aI122
aI122
aI122
aI123
aI122
aI47
aI122
aI123
aI121
aI63
aI121
aI59
aI45
aI86
aI121
aI292
aI470
aI68
aI121
aI121
aI59
aI337
aI48
aI121
aI121
aI63
aI121
aI86
aI121
aI207
aI121
aI121
aI125
aI121
aI86
aI121
aI58
aI121
aI121
aI121
aI121
aI68
aI121
aI125
aI471
aI68
aI121
aI68
aI121
aI151
aI68
aI40
aI205
aI68
aI104
aI87
aI68
aI121
aI83
aI63
aI121
aI43
aI43
aI46
aI65
aI68
aI68
aI68
aI49
aI121
aI121
aI68
aI86
aI54
aI59
aI50
aI68
aI436
aI68
aI82
aI68
aI68
aI68
aI46
aI68
aI68
aI43
aI68
aI68
aI68
aI68
aI68
aI149
aI140
aI139
aI174
aI68
aI149
aI45
aI121
aI68
aI68
aI68
aI68
aI68
aI68
aI64
aI150
aI140
aI81
aI61
aI84
aI140
aI103
aI123
aI68
aI68
aI68
aI52
aI68
aI68
aI68
aI68
aI68
aI68
aI68
aI68
aI172
aI84
aI83
aI118
aI66
aI122
aI59
aI122
aI59
aI122
aI122
aI103
aI115
aI306
aI53
aI62
aI45
aI125
aI124
aI143
aI86
aI56
aI87
aI87
aI159
aI135
aI68
aI68
aI135
aI68
aI68
aI52
aI68
aI68
aI84
aI57
aI264
aI68
aI121
aI121
aI121
aI120
aI120
aI120
aI144
aI61
aI120
aI39
aI120
aI49
aI120
aI155
aI121
aI64
aI155
aI122
aI46
aI121
aI121
aI55
aI121
aI120
aI120
aI120
aI121
aI49
aI120
aI121
aI264
aI87
aI68
aI121
aI121
aI121
aI121
aI68
aI39
aI121
aI40
aI155
aI121
aI106
aI121
aI121
aI87
aI83
aI68
aI45
aI106
aI121
aI106
aI50
aI120
aI49
aI46
aI43
aI106
aI120
aI106
aI120
aI52
aI48
aI60
aI106
aI120
aI87
aI68
aI68
aI68
aI106
aI85
aI60
aI68
aI41
aI68
aI68
aI174
aI46
aI68
aI68
aI68
aI81
aI68
aI68
aI66
aI68
aI68
aI48
aI68
aI68
aI84
aI174
aI63
aI174
aI60
aI139
aI174
aI68
aI208
aI59
aI49
aI68
aI68
aI68
aI68
aI68
aI57
aI68
aI68
aI68
aI68
aI68
aI68
aI49
aI68
aI68
aI68
aI68
aI68
aI68
aI68
aI68
aI68
aI68
aI64
aI59
aI68
aI68
aI68
aI68
aI68
aI68
aI49
aI68
aI68
aI46
aI68
aI173
aI68
aI68
aI68
aI46
aI68
aI68
aI68
aI68
aI68
aI68
aI45
aI82
aI68
aI68
aI68
aI66
aI68
aI68
aI68
aI68
aI68
aI68
aI68
aI105
aI68
aI57
aI68
aI68
aI68
aI68
aI64
aI68
aI68
aI68
aI68
aI68
aI68
aI137
aI105
aI68
aI68
aI68
aI55
aI339
aI68
aI68
aI68
aI68
aI68
aI68
aI58
aI49
aI137
aI136
aI68
aI68
aI68
aI68
aI68
aI68
aI68
aI68
aI68
aI68
aI59
aI225
aI74
aI74
aI87
aI55
aI107
aI68
aI68
aI68
aI121
aI121
aI121
aI120
aI120
aI120
aI57
aI120
aI120
aI167
aI135
aI135
aI68
aI121
aI68
aI144
aI135
aI58
aI68
aI68
aI68
aI84
aI68
aI68
aI68
aI68
aI68
aI49
aI119
aI139
aI68
aI68
aI68
aI87
aI139
aI139
aI68
aI68
aI68
aI139
aI68
aI68
aI68
aI68
aI58
aI146
aI103
aI139
aI62
aI68
aI53
aI68
aI68
aI68
aI68
aI68
aI39
aI68
aI68
aI68
aI57
aI68
aI68
aI104
aI63
aI68
aI68
aI68
aI68
aI68
aI68
aI139
aI68
aI56
aI68
aI68
aI68
aI45
aI68
aI68
aI141
aI48
aI56
aI43
aI135
aI68
aI68
aI68
aI68
aI58
aI45
aI58
aI56
aI56
aI121
aI62
aI48
aI121
aI120
aI120
aI121
aI39
aI121
aI56
aI56
aI121
aI121
aI121
aI121
aI45
aI63
aI68
aI46
aI81
aI45
aI68
aI62
aI56
aI68
aI68
aI68
aI68
aI121
aI68
aI68
aI68
aI68
aI47
aI48
aI68
aI68
aI68
aI68
aI68
aI68
aI173
aI65
aI56
aI68
aI68
aI68
aI68
aI68
aI116
aI68
aI39
aI68
aI62
aI56
aI68
aI116
aI68
aI68
aI68
aI64
aI68
aI68
aI68
aI63
aI45
aI141
aI139
aI139
aI121
aI86
aI85
aI121
aI120
aI121
aI121
aI84
aI68
aI61
aI68
aI68
aI68
aI68
aI68
aI174
aI68
aI47
aI68
aI68
aI52
aI139
aI139
aI192
aI39
aI68
aI68
aI57
aI68
aI52
aI68
aI68
aI43
aI84
aI83
aI123
aI64
aI84
aI208
aI174
aI257
aI68
aI61
aI68
aI68
aI68
aI56
aI68
aI68
aI68
aI68
aI68
aI68
aI68
aI68
aI120
aI120
aI120
aI61
aI40
aI64
aI120
aI120
aI120
aI120
aI121
aI45
aI121
aI64
aI121
aI120
aI84
aI174
aI89
aI62
aI66
aI68
aI68
aI68
aI59
aI68
aI68
aI68
aI54
aI121
aI121
aI121
aI59
aI121
aI57
aI121
aI121
aI121
aI121
aI52
aI121
aI125
aI121
aI121
aI121
aI121
aI121
aI43
aI68
aI68
aI68
aI52
aI63
aI50
aI68
aI141
aI68
aI68
aI68
aI68
aI121
aI83
aI139
aI43
aI139
aI123
aI174
aI139
aI66
aI68
aI68
aI171
aI139
aI57
aI123
aI121
aI68
aI121
aI43
aI123
aI68
aI40
aI105
aI171
aI121
aI61
aI171
aI84
aI86
aI105
aI39
aI106
aI121
aI121
aI121
aI106
aI121
aI121
aI121
aI133
aI122
aI121
aI121
aI107
aI121
aI106
aI121
aI44
aI68
aI82
aI139
aI83
aI52
aI39
aI61
aI45
aI52
aI139
aI139
aI139
aI59
aI68
aI68
aI68
aI68
aI68
aI68
aI68
aI68
aI68
aI68
aI68
aI68
aI68
aI44
aI68
aI68
aI83
aI63
aI44
aI68
aI68
aI68
aI68
aI68
aI68
aI68
aI68
aI68
aI103
aI68
aI83
aI52
aI68
aI68
aI48
aI68
aI84
aI68
aI68
aI68
aI68
aI68
aI65
aI68
aI68
aI68
aI68
aI68
aI68
aI68
aI68
aI65
aI68
aI68
aI66
aI68
aI68
aI123
aI68
aI68
aI68
aI68
aI68
aI68
aI68
aI68
aI68
aI68
aI68
aI68
aI58
aI68
aI68
aI68
aI68
aI68
aI68
aI68
aI68
aI68
aI53
aI68
aI68
aI48
aI122
aI68
aI68
aI68
aI68
aI68
aI68
aI68
aI68
aI68
aI68
aI68
aI68
aI68
aI68
aI68
aI68
aI68
aI68
aI68
aI68
aI68
aI50
aI68
aI68
aI84
aI68
aI68
aI68
aI68
aI68
aI68
aI68
aI68
aI68
aI43
aI68
aI44
aI83
aI68
aI59
aI68
aI82
aI174
aI122
aI103
aI68
aI68
aI55
aI68
aI62
aI68
aI68
aI68
aI68
aI68
aI68
aI68
aI68
aI68
aI68
aI68
aI68
aI68
aI68
aI68
aI68
aI68
aI82
aI68
aI68
aI68
aI68
aI68
aI68
aI68
aI68
aI84
aI68
aI46
aI68
aI57
aI68
aI68
aI68
aI68
aI68
aI68
aI63
aI68
aI68
aI64
aI68
aI45
aI68
aI68
aI68
aI68
aI68
aI68
aI68
aI68
aI68
aI57
aI68
aI118
aI68
aI68
aI68
aI118
aI54
aI45
aI68
aI68
aI68
aI68
aI54
aI68
aI68
aI68
aI68
aI68
aI68
aI68
aI68
aI68
aI63
aI68
aI56
aI68
aI81
aI84
aI68
aI68
aI68
aI121
aI68
aI56
aI68
aI68
aI82
aI68
aI71
aI68
aI139
aI139
aI68
aI68
aI68
aI68
aI68
aI68
aI68
aI63
aI139
aI68
aI68
aI68
aI68
aI68
aI43
aI68
aI68
aI68
aI64
aI68
aI68
aI68
aI68
aI68
aI68
aI68
aI68
aI68
aI105
aI160
aI140
aI63
aI139
aI139
aI139
aI79
aI139
aI139
aI123
aI122
aI112
aI123
aI122
aI139
aI58
aI122
aI123
aI106
aI123
aI68
aI68
aI68
aI59
aI68
aI82
aI45
aI105
aI68
aI112
aI140
aI140
aI139
aI139
aI123
aI54
aI122
aI87
aI139
aI139
aI123
aI250
aI122
aI122
aI123
aI122
aI55
aI123
aI43
aI68
aI68
aI68
aI68
aI68
aI181
aI146
aI174
aI123
aI68
aI68
aI68
aI53
aI68
aI225
aI68
aI68
aI68
aI57
aI68
aI84
aI68
aI56
aI68
aI68
aI123
aI68
aI68
aI68
aI68
aI68
aI68
aI104
aI68
aI59
aI68
aI64
aI58
aI83
aI104
aI68
aI57
aI225
aI68
aI68
aI55
aI68
aI68
aI64
aI68
aI68
aI68
aI68
aI68
aI65
aI68
aI68
aI41
aI68
aI68
aI68
aI68
aI68
aI59
aI64
aI53
aI68
aI68
aI57
aI68
aI62
aI68
aI56
aI68
aI68
aI68
aI68
aI58
aI46
aI68
aI55
aI82
aI67
aI68
aI68
aI68
aI68
aI68
aI57
aI68
aI68
aI68
aI46
aI68
aI96
aI68
aI68
aI68
aI68
aI65
aI68
aI68
aI68
aI68
aI68
aI68
aI68
aI68
aI68
aI68
aI230
aI62
aI68
aI68
aI68
aI52
aI68
aI43
aI68
aI68
aI68
aI68
aI61
aI53
aI68
aI68
aI68
aI68
aI53
aI187
aI68
aI68
aI68
aI68
aI61
aI68
aI68
aI68
aI68
aI129
aI68
aI68
aI84
aI68
aI68
aI40
aI61
aI68
aI49
aI62
aI68
aI68
aI230
aI68
aI68
aI68
aI68
aI64
aI68
aI265
aI68
aI68
aI56
aI68
aI64
aI68
aI68
aI68
aI68
aI68
aI68
aI68
aI68
aI41
aI68
aI68
aI80
aI68
aI68
aI46
aI68
aI68
aI105
aI68
aI50
aI68
aI59
aI68
aI68
aI44
aI68
aI59
aI68
aI68
aI68
aI68
aI103
aI68
aI68
aI68
aI54
aI121
aI112
aI68
aI68
aI53
aI68
aI68
aI68
aI65
aI68
aI68
aI68
aI64
aI68
aI63
aI68
aI43
aI68
aI214
aI68
aI68
aI68
aI68
aI68
aI68
aI68
aI68
aI62
aI68
aI68
aI68
aI68
aI68
aI68
aI40
aI68
aI68
aI68
aI68
aI48
aI78
aI68
aI68
aI68
aI68
aI68
aI56
aI68
aI68
aI68
aI107
aI56
aI68
aI68
aI68
aI58
aI68
aI68
aI66
aI68
aI68
aI68
aI64
aI68
aI68
aI68
aI68
aI52
aI68
aI78
aI68
aI43
aI62
aI68
aI68
aI70
aI68
aI60
aI68
aI170
aI68
aI58
aI68
aI68
aI68
aI50
aI68
aI68
aI68
aI39
aI68
aI68
aI68
aI68
aI68
aI45
aI61
aI68
aI68
aI44
aI68
aI68
aI104
aI68
aI68
aI53
aI68
aI68
aI68
aI68
aI68
aI64
aI79
aI68
aI68
aI58
aI68
aI56
aI68
aI68
aI39
aI68
aI68
aI68
aI68
aI68
aI68
aI68
aI68
aI46
aI56
aI68
aI39
aI68
aI53
aI68
aI68
aI68
aI68
aI68
aI70
aI68
aI44
aI59
aI68
aI68
aI57
aI112
aI68
aI68
aI59
aI68
aI68
aI46
aI68
aI68
aI68
aI68
aI61
aI68
aI68
aI68
aI68
aI68
aI68
aI68
aI68
aI55
aI50
aI64
aI68
aI66
aI68
aI68
aI68
aI68
aI58
aI68
aI68
aI68
aI68
aI68
aI68
aI59
aI68
aI56
aI188
aI68
aI68
aI55
aI68
aI68
aI68
aI68
aI81
aI68
aI68
aI55
aI68
aI68
aI45
aI68
aI68
aI64
aI68
aI68
aI68
aI68
aI47
aI68
aI68
aI68
aI68
aI66
aI68
aI68
aI61
aI57
aI68
aI68
aI44
aI104
aI112
aI68
aI68
aI68
aI68
aI61
aI68
aI68
aI68
aI68
aI68
aI68
aI62
aI68
aI68
aI122
aI61
aI68
aI101
aI68
aI46
aI160
aI65
aI68
aI59
aI68
aI68
aI68
aI68
aI68
aI68
aI68
aI68
aI53
aI68
aI68
aI68
aI68
aI52
aI68
aI68
aI68
aI44
aI68
aI68
aI68
aI68
aI43
aI68
aI60
aI68
aI68
aI68
aI68
aI68
aI65
aI68
aI68
aI68
aI68
aI45
aI68
aI68
aI68
aI68
aI68
aI68
aI68
aI58
aI68
aI68
aI68
aI68
aI64
aI68
aI68
aI68
aI68
aI68
aI46
aI48
aI56
aI60
aI114
aI48
aI56
aI68
aI68
aI53
aI68
aI68
aI105
aI68
aI68
aI68
aI68
aI58
aI64
aI68
aI61
aI105
aI68
aI68
aI83
aI68
aI68
aI46
aI68
aI64
aI68
aI68
aI47
aI68
aI68
aI68
aI68
aI68
aI68
aI68
aI68
aI68
aI41
aI68
aI169
aI68
aI64
aI84
aI68
aI68
aI68
aI56
aI68
aI68
aI63
aI68
aI68
aI68
aI68
aI68
aI68
aI58
aI45
aI49
aI49
aI49
aI49
aI49
aI46
aI49
aI43
aI49
aI49
aI49
aI49
aI49
aI49
aI49
aI58
aI49
aI49
aI49
aI49
aI49
aI49
aI49
aI49
aI79
aI49
aI49
aI99
aI49
aI49
aI49
aI49
aI49
aI49
aI49
aI49
aI49
aI49
aI43
aI49
aI49
aI49
aI46
aI49
aI58
aI49
aI49
aI49
aI65
aI49
aI49
aI49
aI49
aI49
aI49
aI49
aI49
aI49
aI49
aI49
aI56
aI49
aI49
aI49
aI49
aI56
aI49
aI49
aI59
aI49
aI64
aI43
aI50
aI129
aI49
aI49
aI49
aI40
aI49
aI58
aI49
aI49
aI49
aI49
aI49
aI49
aI49
aI49
aI49
aI49
aI49
aI63
aI58
aI49
aI49
aI49
aI49
aI49
aI49
aI59
aI58
aI49
aI55
aI49
aI49
aI56
aI49
aI49
aI49
aI49
aI49
aI65
aI58
aI49
aI49
aI49
aI58
aI49
aI49
aI49
aI63
aI66
aI49
aI49
aI49
aI49
aI49
aI42
aI49
aI61
aI49
aI59
aI49
aI61
aI49
aI49
aI49
aI49
aI49
aI56
aI49
aI60
aI49
aI49
aI55
aI49
aI49
aI58
aI49
aI49
aI49
aI49
aI125
aI49
aI49
aI49
aI49
aI39
aI49
aI49
aI49
aI49
aI44
aI43
aI49
aI49
aI49
aI49
aI49
aI49
aI76
aI49
aI49
aI76
aI49
aI49
aI74
aI49
aI40
aI47
aI49
aI49
aI49
aI58
aI49
aI49
aI49
aI49
aI46
aI49
aI49
aI49
aI64
aI49
aI49
aI56
aI49
aI49
aI49
aI49
aI51
aI49
aI49
aI49
aI49
aI49
aI49
aI49
aI49
aI49
aI49
aI46
aI64
aI49
aI49
aI49
aI68
aI49
aI49
aI49
aI54
aI49
aI59
aI49
aI49
aI64
aI49
aI49
aI49
aI49
aI49
aI60
aI49
aI49
aI91
aI49
aI49
aI49
aI49
aI49
aI49
aI49
aI49
aI49
aI40
aI49
aI49
aI49
aI49
aI49
aI49
aI115
aI49
aI125
aI49
aI49
aI49
aI49
aI49
aI63
aI49
aI46
aI49
aI49
aI49
aI49
aI49
aI49
aI49
aI49
aI49
aI49
aI49
aI49
aI49
aI49
aI49
aI49
aI49
aI58
aI49
aI49
aI49
aI66
aI49
aI44
aI49
aI49
aI56
aI49
aI49
aI49
aI49
aI49
aI49
aI49
aI49
aI49
aI49
aI49
aI58
aI49
aI49
aI49
aI49
aI48
aI49
aI49
aI64
aI49
aI49
aI49
aI49
aI49
aI49
aI49
aI49
aI54
aI49
aI76
aI49
aI49
aI49
aI49
aI58
aI58
aI51
aI49
aI73
aI56
aI49
aI49
aI49
aI49
aI49
aI49
aI49
aI49
aI49
aI49
aI49
aI58
aI49
aI49
aI49
aI49
aI49
aI49
aI49
aI74
aI49
aI49
aI63
aI49
aI43
aI49
aI53
aI49
aI49
aI49
aI49
aI49
aI64
aI49
aI49
aI49
aI49
aI74
aI49
aI49
aI49
aI49
aI49
aI52
aI49
aI49
aI49
aI49
aI49
aI49
aI49
aI60
aI49
aI51
aI49
aI115
aI49
aI49
aI49
aI49
aI49
aI49
aI43
aI49
aI137
aI49
aI49
aI49
aI49
aI49
aI49
aI49
aI55
aI49
aI49
aI49
aI49
aI49
aI49
aI49
aI49
aI46
aI55
aI49
aI48
aI49
aI49
aI49
aI124
aI49
aI95
aI40
aI49
aI49
aI49
aI49
aI49
aI49
aI49
aI49
aI49
aI49
aI49
aI49
aI49
aI49
aI43
aI49
aI49
aI76
aI49
aI49
aI49
aI49
aI60
aI49
aI49
aI64
aI49
aI49
aI58
aI49
aI39
aI59
aI58
aI48
aI49
aI87
aI49
aI49
aI49
aI49
aI49
aI49
aI49
aI59
aI49
aI49
aI49
aI49
aI49
aI49
aI60
aI49
aI49
aI49
aI49
aI49
aI49
aI49
aI49
aI49
aI87
aI56
aI43
aI54
aI49
aI107
aI49
aI49
aI49
aI49
aI49
aI58
aI49
aI49
aI49
aI49
aI49
aI49
aI49
aI47
aI49
aI49
aI49
aI49
aI49
aI48
aI49
aI64
aI49
aI49
aI49
aI49
aI62
aI49
aI62
aI49
aI49
aI49
aI49
aI40
aI64
aI49
aI49
aI49
aI49
aI51
aI49
aI49
aI49
aI49
aI40
aI49
aI49
aI49
aI49
aI49
aI49
aI49
aI49
aI49
aI49
aI49
aI49
aI49
aI49
aI49
aI49
aI49
aI49
aI46
aI49
aI49
aI74
aI57
aI49
aI49
aI49
aI49
aI68
aI107
aI49
aI49
aI49
aI49
aI49
aI49
aI51
aI44
aI91
aI49
aI49
aI62
aI49
aI49
aI49
aI49
aI49
aI49
aI39
aI49
aI62
aI49
aI39
aI49
aI49
aI49
aI53
aI49
aI54
aI39
aI107
aI66
aI44
aI49
aI49
aI54
aI60
aI49
aI64
aI49
aI66
aI62
aI49
aI49
aI49
aI49
aI49
aI49
aI49
aI49
aI49
aI49
aI49
aI49
aI49
aI49
aI49
aI49
aI49
aI49
aI49
aI49
aI49
aI49
aI49
aI49
aI49
aI43
aI49
aI64
aI49
aI49
aI49
aI49
aI40
aI49
aI49
aI49
aI58
aI49
aI153
aI58
aI49
aI49
aI48
aI57
aI49
aI49
aI49
aI49
aI49
aI49
aI121
aI49
aI49
aI40
aI49
aI49
aI49
aI49
aI49
aI40
aI39
aI57
aI49
aI51
aI39
aI49
aI49
aI49
aI49
aI49
aI49
aI49
aI102
aI49
aI49
aI49
aI60
aI49
aI153
aI58
aI145
aI49
aI49
aI55
aI49
aI49
aI49
aI49
aI49
aI49
aI49
aI49
aI49
aI49
aI46
aI59
aI49
aI62
aI49
aI49
aI49
aI49
aI153
aI49
aI49
aI49
aI58
aI49
aI46
aI153
aI49
aI205
aI49
aI49
aI49
aI49
aI49
aI60
aI49
aI53
aI49
aI49
aI49
aI49
aI49
aI54
aI49
aI49
aI49
aI49
aI49
aI49
aI40
aI43
aI49
aI49
aI49
aI49
aI49
aI49
aI49
aI107
aI49
aI49
aI49
aI49
aI49
aI49
aI49
aI49
aI49
aI49
aI49
aI49
aI49
aI64
aI49
aI49
aI49
aI49
aI49
aI49
aI49
aI49
aI49
aI49
aI49
aI49
aI49
aI49
aI49
aI49
aI49
aI49
aI49
aI49
aI49
aI49
aI49
aI49
aI49
aI49
aI49
aI49
aI49
aI49
aI63
aI49
aI49
aI58
aI49
aI49
aI49
aI63
aI49
aI49
aI49
aI49
aI63
aI49
aI59
aI60
aI49
aI49
aI49
aI49
aI168
aI49
aI44
aI60
aI49
aI49
aI49
aI49
aI49
aI49
aI49
aI64
aI49
aI49
aI49
aI64
aI49
aI49
aI60
aI49
aI49
aI49
aI49
aI86
aI49
aI49
aI49
aI49
aI49
aI49
aI49
aI49
aI64
aI58
aI49
aI56
aI49
aI49
aI117
aI49
aI49
aI49
aI49
aI49
aI49
aI49
aI49
aI49
aI57
aI49
aI49
aI49
aI49
aI49
aI49
aI64
aI49
aI49
aI80
aI49
aI49
aI49
aI49
aI63
aI45
aI49
aI49
aI46
aI46
aI168
aI60
aI49
aI49
aI49
aI143
aI49
aI49
aI49
aI49
aI49
aI49
aI108
aI49
aI57
aI49
aI58
aI49
aI49
aI68
aI56
aI49
aI49
aI43
aI49
aI49
aI49
aI49
aI49
aI49
aI49
aI49
aI54
aI49
aI49
aI49
aI49
aI49
aI57
aI107
aI49
aI49
aI49
aI48
aI49
aI61
aI49
aI49
aI51
aI49
aI49
aI49
aI49
aI48
aI49
aI49
aI49
aI49
aI49
aI49
aI49
aI49
aI62
aI49
aI49
aI49
aI49
aI49
aI49
aI49
aI56
aI49
aI49
aI49
aI49
aI49
aI49
aI61
aI49
aI49
aI49
aI49
aI60
aI49
aI49
aI46
aI49
aI49
aI49
aI49
aI49
aI49
aI49
aI49
aI49
aI49
aI49
aI49
aI49
aI49
aI49
aI49
aI49
aI49
aI49
aI49
aI49
aI49
aI54
aI49
aI49
aI49
aI49
aI49
aI49
aI49
aI49
aI49
aI49
aI49
aI49
aI49
aI49
aI121
aI49
aI49
aI54
aI54
aI49
aI49
aI49
aI49
aI64
aI49
aI49
aI49
aI49
aI53
aI56
aI49
aI54
aI43
aI56
aI147
aI49
aI49
aI54
aI49
aI49
aI49
aI49
aI49
aI49
aI49
aI49
aI49
aI49
aI49
aI49
aI49
aI60
aI49
aI49
aI49
aI44
aI49
aI49
aI49
aI154
aI49
aI60
aI49
aI241
aI53
aI64
aI49
aI49
aI49
aI49
aI49
aI49
aI154
aI49
aI49
aI66
aI49
aI49
aI49
aI59
aI49
aI49
aI147
aI49
aI49
aI150
aI147
aI145
aI49
aI49
aI49
aI49
aI48
aI49
aI49
aI49
aI49
aI49
aI49
aI54
aI49
aI49
aI49
aI43
aI49
aI49
aI49
aI107
aI45
aI49
aI58
aI55
aI54
aI49
aI107
aI64
aI104
aI46
aI49
aI49
aI49
aI49
aI49
aI49
aI49
aI49
aI49
aI49
aI49
aI49
aI49
aI43
aI49
aI49
aI49
aI57
aI54
aI49
aI49
aI49
aI49
aI59
aI39
aI49
aI49
aI49
aI49
aI49
aI108
aI57
aI49
aI49
aI54
aI43
aI49
aI49
aI66
aI49
aI49
aI49
aI49
aI49
aI49
aI49
aI49
aI49
aI49
aI49
aI49
aI49
aI49
aI49
aI40
aI49
aI49
aI49
aI108
aI49
aI58
aI49
aI49
aI168
aI49
aI49
aI49
aI50
aI49
aI49
aI173
aI49
aI56
aI44
aI49
aI62
aI49
aI49
aI49
aI49
aI49
aI49
aI41
aI49
aI49
aI49
aI154
aI63
aI43
aI49
aI49
aI58
aI49
aI49
aI49
aI131
aI49
aI49
aI49
aI168
aI49
aI49
aI49
aI49
aI49
aI49
aI49
aI64
aI49
aI49
aI49
aI49
aI147
aI49
aI63
aI54
aI49
aI49
aI49
aI49
aI49
aI49
aI58
aI48
aI64
aI49
aI49
aI49
aI49
aI49
aI49
aI49
aI49
aI49
aI49
aI49
aI49
aI49
aI49
aI52
aI49
aI49
aI49
aI168
aI49
aI49
aI49
aI49
aI49
aI49
aI49
aI49
aI57
aI49
aI49
aI49
aI49
aI49
aI49
aI58
aI73
aI64
aI86
aI49
aI49
aI49
aI45
aI49
aI49
aI49
aI91
aI49
aI49
aI58
aI49
aI49
aI49
aI49
aI49
aI86
aI49
aI74
aI49
aI49
aI49
aI49
aI49
aI49
aI49
aI49
aI165
aI49
aI49
aI49
aI49
aI49
aI49
aI49
aI49
aI49
aI49
aI49
aI49
aI49
aI49
aI49
aI49
aI49
aI49
aI49
aI58
aI49
aI49
aI64
aI49
aI56
aI49
aI49
aI43
aI49
aI49
aI49
aI49
aI49
aI49
aI49
aI49
aI49
aI49
aI57
aI49
aI49
aI49
aI49
aI49
aI49
aI143
aI49
aI49
aI49
aI49
aI49
aI49
aI49
aI49
aI57
aI49
aI49
aI49
aI49
aI49
aI49
aI168
aI56
aI49
aI49
aI49
aI49
aI49
aI49
aI54
aI49
aI49
aI49
aI49
aI49
aI49
aI49
aI49
aI49
aI49
aI49
aI49
aI60
aI58
aI49
aI58
aI49
aI91
aI49
aI49
aI49
aI49
aI49
aI48
aI49
aI49
aI49
aI91
aI49
aI53
aI49
aI49
aI49
aI49
aI121
aI49
aI49
aI49
aI49
aI150
aI57
aI49
aI49
aI49
aI49
aI49
aI64
aI49
aI49
aI61
aI49
aI49
aI49
aI45
aI49
aI49
aI86
aI49
aI49
aI49
aI49
aI48
aI49
aI49
aI49
aI49
aI49
aI49
aI56
aI49
aI49
aI49
aI66
aI49
aI49
aI49
aI49
aI49
aI49
aI49
aI49
aI49
aI49
aI49
aI49
aI49
aI49
aI49
aI58
aI49
aI49
aI49
aI49
aI49
aI46
aI49
aI49
aI49
aI49
aI49
aI60
aI49
aI49
aI49
aI49
aI49
aI49
aI53
aI49
aI49
aI49
aI168
aI51
aI147
aI49
aI49
aI49
aI49
aI49
aI49
aI49
aI49
aI59
aI49
aI61
aI49
aI49
aI83
aI49
aI49
aI49
aI49
aI49
aI49
aI56
aI117
aI49
aI49
aI57
aI49
aI49
aI49
aI54
aI56
aI49
aI49
aI51
aI49
aI49
aI56
aI49
aI49
aI49
aI49
aI49
aI49
aI49
aI108
aI145
aI49
aI49
aI48
aI49
aI49
aI45
aI49
aI49
aI49
aI49
aI49
aI49
aI49
aI49
aI49
aI49
aI49
aI73
aI49
aI49
aI136
aI49
aI49
aI49
aI49
aI63
aI53
aI49
aI49
aI49
aI49
aI49
aI49
aI49
aI49
aI49
aI60
aI58
aI49
aI49
aI49
aI58
aI49
aI58
aI75
aI49
aI49
aI49
aI49
aI49
aI49
aI49
aI49
aI49
aI49
aI49
aI62
aI49
aI49
aI49
aI49
aI49
aI63
aI49
aI49
aI49
aI49
aI49
aI49
aI49
aI49
aI49
aI49
aI49
aI49
aI49
aI49
aI60
aI49
aI55
aI49
aI49
aI49
aI58
aI145
aI49
aI49
aI56
aI56
aI49
aI107
aI58
aI49
aI49
aI49
aI49
aI49
aI43
aI49
aI49
aI49
aI49
aI49
aI49
aI49
aI49
aI49
aI49
aI59
aI49
aI49
aI107
aI49
aI49
aI49
aI49
aI55
aI49
aI44
aI53
aI49
aI49
aI49
aI45
aI49
aI49
aI58
aI49
aI107
aI49
aI155
aI858
aI49
aI49
aI49
aI147
aI49
aI49
aI49
aI49
aI49
aI49
aI49
aI49
aI49
aI53
aI49
aI49
aI43
aI49
aI58
aI49
aI49
aI49
aI49
aI49
aI49
aI49
aI49
aI49
aI49
aI49
aI49
aI49
aI49
aI49
aI49
aI49
aI49
aI49
aI49
aI58
aI190
aI49
aI49
aI49
aI49
aI49
aI49
aI49
aI49
aI135
aI92
aI134
aI134
aI49
aI49
aI151
aI49
aI49
aI49
aI49
aI49
aI49
aI49
aI49
aI49
aI49
aI49
aI49
aI49
aI49
aI49
aI49
aI45
aI49
aI49
aI49
aI49
aI49
aI49
aI49
aI49
aI49
aI49
aI49
aI49
aI49
aI49
aI49
aI168
aI49
aI43
aI49
aI49
aI49
aI49
aI49
aI49
aI49
aI49
aI49
aI49
aI49
aI58
aI49
aI67
aI49
aI49
aI49
aI49
aI49
aI54
aI61
aI49
aI49
aI49
aI49
aI49
aI49
aI54
aI49
aI46
aI49
aI49
aI49
aI49
aI49
aI49
aI54
aI49
aI49
aI49
aI49
aI49
aI49
aI168
aI49
aI49
aI49
aI151
aI106
aI49
aI49
aI49
aI49
aI49
aI49
aI49
aI43
aI49
aI91
aI49
aI49
aI49
aI49
aI49
aI49
aI49
aI43
aI49
aI49
aI49
aI49
aI49
aI49
aI49
aI49
aI49
aI49
aI49
aI135
aI49
aI42
aI63
aI62
aI62
aI195
aI118
aI118
aI795
aI48
aI60
aI49
aI80
aI49
aI49
aI49
aI49
aI49
aI49
aI49
aI49
aI58
aI49
aI49
aI49
aI49
aI49
aI49
aI49
aI49
aI49
aI60
aI95
aI75
aI49
aI55
aI51
aI49
aI49
aI49
aI49
aI40
aI49
aI49
aI54
aI49
aI49
aI49
aI76
aI49
aI59
aI49
aI49
aI49
aI49
aI49
aI49
aI58
aI49
aI60
aI49
aI49
aI49
aI49
aI49
aI49
aI49
aI58
aI49
aI49
aI49
aI49
aI49
aI53
aI49
aI49
aI49
aI49
aI64
aI49
aI49
aI168
aI49
aI49
aI49
aI49
aI49
aI49
aI45
aI49
aI49
aI98
aI49
aI49
aI63
aI73
aI49
aI95
aI49
aI63
aI49
aI49
aI45
aI49
aI49
aI91
aI141
aI49
aI49
aI118
aI49
aI49
aI89
aI49
aI49
aI49
aI49
aI49
aI49
aI49
aI49
aI49
aI49
aI49
aI49
aI54
aI49
aI117
aI49
aI49
aI49
aI49
aI49
aI44
aI49
aI49
aI49
aI54
aI49
aI49
aI53
aI49
aI49
aI49
aI49
aI49
aI49
aI91
aI49
aI49
aI49
aI54
aI44
aI117
aI49
aI49
aI49
aI49
aI75
aI49
aI49
aI49
aI42
aI49
aI49
aI49
aI49
aI49
aI49
aI49
aI135
aI49
aI49
aI52
aI106
aI54
aI118
aI49
aI152
aI255
aI901
aI49
aI901
aI384
aI154
aI49
aI384
aI54
aI49
aI43
aI49
aI49
aI150
aI49
aI202
aI49
aI60
aI49
aI49
aI49
aI49
aI49
aI49
aI270
aI202
aI384
aI79
aI60
aI53
aI105
aI105
aI60
aI105
aI105
aI105
aI105
aI40
aI49
aI49
aI58
aI49
aI49
aI49
aI43
aI46
aI49
aI49
aI43
aI49
aI49
aI49
aI49
aI49
aI49
aI49
aI49
aI49
aI49
aI53
aI118
aI45
aI119
aI49
aI49
aI49
aI49
aI49
aI49
aI49
aI49
aI49
aI49
aI49
aI49
aI49
aI49
aI49
aI49
aI49
aI49
aI46
aI49
aI49
aI49
aI49
aI49
aI49
aI61
aI49
aI49
aI49
aI49
aI49
aI49
aI49
aI49
aI49
aI49
aI49
aI49
aI388
aI49
aI49
aI49
aI49
aI121
aI78
aI49
aI49
aI49
aI49
aI49
aI49
aI49
aI49
aI49
aI49
aI49
aI49
aI46
aI49
aI49
aI78
aI49
aI49
aI60
aI49
aI268
aI49
aI49
aI49
aI53
aI49
aI49
aI49
aI49
aI49
aI49
aI49
aI78
aI49
aI121
aI49
aI49
aI49
aI49
aI49
aI125
aI98
aI45
aI49
aI49
aI49
aI193
aI49
aI45
aI49
aI49
aI49
aI49
aI49
aI49
aI43
aI49
aI49
aI49
aI49
aI49
aI49
aI53
aI49
aI48
aI49
aI49
aI49
aI49
aI56
aI49
aI49
aI169
aI49
aI60
aI49
aI49
aI49
aI236
aI49
aI160
aI49
aI49
aI49
aI49
aI49
aI49
aI49
aI49
aI66
aI49
aI49
aI49
aI49
aI49
aI49
aI49
aI49
aI49
aI49
aI49
aI49
aI60
aI49
aI49
aI49
aI49
aI49
aI49
aI49
aI49
aI49
aI49
aI49
aI49
aI49
aI40
aI49
aI49
aI49
aI49
aI49
aI49
aI49
aI49
aI49
aI49
aI49
aI49
aI58
aI49
aI56
aI49
aI49
aI49
aI49
aI49
aI49
aI49
aI49
aI49
aI49
aI49
aI49
aI49
aI49
aI54
aI49
aI54
aI49
aI60
aI49
aI49
aI49
aI49
aI49
aI49
aI49
aI49
aI49
aI49
aI49
aI49
aI49
aI49
aI49
aI49
aI56
aI209
aI49
aI49
aI56
aI49
aI49
aI58
aI49
aI61
aI49
aI49
aI46
aI49
aI61
aI49
aI49
aI49
aI123
aI49
aI49
aI49
aI49
aI49
aI49
aI49
aI49
aI50
aI49
aI49
aI49
aI49
aI49
aI49
aI49
aI50
aI49
aI49
aI49
aI49
aI49
aI78
aI49
aI49
aI49
aI43
aI63
aI49
aI49
aI49
aI49
aI49
aI49
aI49
aI49
aI49
aI49
aI80
aI49
aI56
aI49
aI49
aI49
aI46
aI49
aI49
aI44
aI54
aI49
aI61
aI49
aI49
aI49
aI49
aI49
aI49
aI49
aI102
aI45
aI49
aI78
aI49
aI43
aI49
aI49
aI49
aI49
aI49
aI76
aI49
aI49
aI49
aI49
aI49
aI49
aI59
aI49
aI49
aI105
aI49
aI49
aI49
aI121
aI49
aI49
aI49
aI43
aI49
aI53
aI49
aI49
aI52
aI45
aI49
aI49
aI49
aI49
aI49
aI52
aI49
aI40
aI42
aI49
aI49
aI49
aI49
aI40
aI49
aI105
aI49
aI49
aI49
aI58
aI49
aI49
aI49
aI49
aI49
aI49
aI49
aI49
aI49
aI49
aI44
aI49
aI49
aI60
aI49
aI49
aI62
aI49
aI49
aI49
aI49
aI40
aI150
aI49
aI49
aI49
aI49
aI49
aI49
aI49
aI49
aI49
aI49
aI83
aI49
aI49
aI49
aI49
aI58
aI49
aI58
aI49
aI49
aI49
aI58
aI49
aI61
aI49
aI49
aI49
aI49
aI82
aI49
aI49
aI49
aI55
aI49
aI49
aI49
aI49
aI58
aI49
aI49
aI49
aI49
aI49
aI49
aI49
aI49
aI49
aI49
aI49
aI49
aI49
aI105
aI59
aI49
aI49
aI39
aI49
aI60
aI49
aI49
aI49
aI46
aI49
aI49
aI49
aI55
aI49
aI49
aI49
aI49
aI49
aI44
aI49
aI49
aI61
aI49
aI39
aI49
aI49
aI49
aI49
aI49
aI49
aI49
aI49
aI49
aI49
aI49
aI49
aI78
aI49
aI49
aI49
aI105
aI49
aI49
aI49
aI39
aI49
aI49
aI49
aI49
aI49
aI49
aI49
aI49
aI49
aI49
aI49
aI49
aI62
aI49
aI49
aI49
aI49
aI98
aI49
aI49
aI49
aI44
aI49
aI40
aI49
aI49
aI49
aI49
aI49
aI49
aI56
aI49
aI49
aI49
aI49
aI49
aI49
aI345
aI58
aI56
aI49
aI49
aI59
aI49
aI49
aI49
aI49
aI49
aI49
aI154
aI49
aI49
aI49
aI49
aI49
aI49
aI49
aI43
aI49
aI49
aI150
aI59
aI49
aI42
aI80
aI49
aI41
aI49
aI49
aI49
aI49
aI49
aI49
aI49
aI49
aI49
aI49
aI49
aI120
aI49
aI49
aI49
aI49
aI49
aI49
aI49
aI49
aI49
aI49
aI49
aI65
aI49
aI49
aI39
aI56
aI49
aI54
aI49
aI65
aI49
aI49
aI49
aI56
aI49
aI49
aI49
aI49
aI49
aI49
aI49
aI49
aI49
aI49
aI105
aI49
aI49
aI49
aI49
aI54
aI49
aI49
aI49
aI114
aI58
aI49
aI49
aI251
aI80
aI49
aI49
aI49
aI58
aI49
aI49
aI181
aI49
aI47
aI49
aI49
aI44
aI58
aI49
aI49
aI49
aI45
aI49
aI49
aI49
aI49
aI40
aI49
aI49
aI49
aI49
aI49
aI49
aI49
aI49
aI49
aI63
aI49
aI49
aI78
aI40
aI58
aI49
aI49
aI49
aI49
aI50
aI63
aI49
aI39
aI49
aI49
aI49
aI115
aI49
aI49
aI49
aI49
aI49
aI49
aI49
aI42
aI49
aI58
aI49
aI58
aI49
aI49
aI49
aI49
aI49
aI49
aI49
aI49
aI111
aI49
aI49
aI56
aI78
aI49
aI49
aI49
aI49
aI49
aI58
aI156
aI49
aI49
aI49
aI42
aI46
aI49
aI49
aI49
aI49
aI49
aI49
aI49
aI49
aI49
aI63
aI49
aI49
aI49
aI49
aI115
aI49
aI49
aI54
aI49
aI49
aI49
aI49
aI49
aI49
aI48
aI49
aI49
aI49
aI49
aI49
aI49
aI56
aI49
aI49
aI49
aI49
aI49
aI80
aI49
aI49
aI49
aI49
aI63
aI49
aI49
aI49
aI97
aI49
aI49
aI39
aI119
aI53
aI59
aI105
aI49
aI49
aI49
aI49
aI49
aI49
aI49
aI49
aI49
aI49
aI49
aI49
aI49
aI49
aI121
aI105
aI49
aI62
aI49
aI80
aI49
aI49
aI39
aI49
aI49
aI49
aI49
aI49
aI49
aI49
aI150
aI105
aI49
aI49
aI49
aI78
aI49
aI49
aI49
aI49
aI60
aI76
aI49
aI39
aI83
aI65
aI49
aI49
aI49
aI49
aI120
aI105
aI114
aI59
aI49
aI49
aI39
aI49
aI49
aI49
aI48
aI49
aI49
aI150
aI49
aI42
aI49
aI49
aI49
aI49
aI60
aI49
aI49
aI49
aI49
aI78
aI40
aI57
aI49
aI49
aI49
aI49
aI49
aI49
aI49
aI49
aI49
aI49
aI49
aI49
aI49
aI49
aI49
aI49
aI49
aI49
aI49
aI54
aI52
aI49
aI40
aI49
aI49
aI49
aI49
aI49
aI52
aI49
aI49
aI49
aI49
aI49
aI49
aI49
aI49
aI49
aI49
aI49
aI49
aI49
aI49
aI49
aI49
aI49
aI45
aI102
aI49
aI58
aI55
aI49
aI39
aI49
aI42
aI49
aI39
aI49
aI102
aI49
aI49
aI49
aI49
aI52
aI49
aI49
aI49
aI49
aI41
aI49
aI49
aI49
aI58
aI60
aI49
aI39
aI39
aI49
aI49
aI78
aI39
aI49
aI49
aI49
aI49
aI58
aI49
aI49
aI49
aI46
aI49
aI139
aI78
aI58
aI41
aI49
aI49
aI49
aI75
aI49
aI49
aI49
aI49
aI49
aI49
aI49
aI49
aI44
aI49
aI49
aI49
aI49
aI49
aI49
aI49
aI49
aI49
aI45
aI39
aI57
aI49
aI49
aI49
aI39
aI49
aI49
aI49
aI49
aI49
aI119
aI49
aI49
aI49
aI60
aI49
aI49
aI49
aI49
aI49
aI49
aI49
aI49
aI49
aI49
aI49
aI49
aI49
aI59
aI49
aI62
aI49
aI49
aI49
aI57
aI49
aI49
aI49
aI49
aI49
aI49
aI49
aI49
aI49
aI49
aI49
aI49
aI54
aI49
aI60
aI105
aI49
aI55
aI58
aI49
aI55
aI49
aI49
aI49
aI49
aI49
aI49
aI49
aI49
aI49
aI49
aI49
aI49
aI49
aI49
aI55
aI49
aI75
aI49
aI49
aI58
aI49
aI49
aI49
aI56
aI60
aI49
aI49
aI46
aI83
aI46
aI49
aI56
aI49
aI49
aI49
aI49
aI49
aI49
aI49
aI49
aI149
aI49
aI59
aI66
aI44
aI49
aI49
aI121
aI83
aI105
aI49
aI62
aI105
aI49
aI49
aI49
aI49
aI49
aI49
aI58
aI49
aI49
aI43
aI49
aI54
aI78
aI49
aI49
aI49
aI49
aI49
aI49
aI49
aI105
aI105
aI56
aI49
aI78
aI55
aI59
aI49
aI49
aI49
aI49
aI49
aI49
aI49
aI81
aI49
aI49
aI55
aI49
aI49
aI49
aI80
aI62
aI49
aI60
aI39
aI49
aI66
aI49
aI49
aI49
aI49
aI49
aI39
aI62
aI49
aI49
aI49
aI49
aI49
aI67
aI49
aI49
aI81
aI49
aI133
aI49
aI61
aI49
aI60
aI49
aI49
aI49
aI49
aI49
aI49
aI49
aI49
aI58
aI49
aI49
aI49
aI54
aI56
aI49
aI49
aI49
aI49
aI54
aI49
aI52
aI49
aI80
aI49
aI198
aI49
aI49
aI49
aI39
aI49
aI49
aI49
aI49
aI49
aI55
aI49
aI49
aI49
aI52
aI49
aI49
aI49
aI170
aI49
aI49
aI49
aI49
aI61
aI49
aI49
aI49
aI45
aI49
aI49
aI49
aI49
aI49
aI49
aI49
aI49
aI49
aI49
aI48
aI49
aI49
aI49
aI49
aI49
aI49
aI49
aI83
aI49
aI67
aI49
aI49
aI49
aI58
aI49
aI49
aI49
aI60
aI49
aI49
aI62
aI57
aI49
aI56
aI82
aI40
aI49
aI49
aI60
aI109
aI49
aI49
aI49
aI49
aI49
aI49
aI49
aI49
aI49
aI49
aI49
aI78
aI49
aI49
aI49
aI60
aI65
aI58
aI49
aI49
aI53
aI49
aI49
aI58
aI49
aI49
aI54
aI49
aI40
aI49
aI78
aI49
aI49
aI49
aI49
aI49
aI49
aI62
aI49
aI49
aI49
aI115
aI49
aI49
aI49
aI49
aI49
aI49
aI45
aI49
aI49
aI49
aI54
aI49
aI49
aI80
aI49
aI49
aI49
aI49
aI49
aI49
aI49
aI49
aI49
aI40
aI49
aI49
aI56
aI49
aI49
aI49
aI49
aI49
aI49
aI62
aI39
aI49
aI49
aI49
aI49
aI49
aI49
aI49
aI49
aI49
aI49
aI49
aI49
aI43
aI49
aI58
aI49
aI49
aI49
aI49
aI49
aI49
aI49
aI49
aI49
aI49
aI49
aI59
aI49
aI113
aI49
aI49
aI49
aI49
aI49
aI111
aI49
aI49
aI82
aI49
aI49
aI98
aI49
aI49
aI54
aI49
aI49
aI49
aI49
aI45
aI49
aI49
aI49
aI49
aI49
aI80
aI49
aI49
aI49
aI49
aI49
aI49
aI105
aI49
aI101
aI49
aI49
aI49
aI49
aI49
aI49
aI58
aI49
aI49
aI49
aI103
aI49
aI49
aI49
aI49
aI49
aI49
aI49
aI49
aI49
aI49
aI49
aI49
aI49
aI49
aI49
aI80
aI62
aI49
aI49
aI156
aI56
aI49
aI49
aI54
aI49
aI49
aI45
aI49
aI78
aI49
aI49
aI49
aI52
aI49
aI49
aI49
aI49
aI45
aI49
aI49
aI54
aI49
aI49
aI49
aI49
aI49
aI49
aI81
aI49
aI49
aI49
aI49
aI49
aI54
aI49
aI49
aI49
aI49
aI49
aI49
aI49
aI54
aI49
aI49
aI49
aI60
aI49
aI106
aI49
aI49
aI58
aI49
aI49
aI49
aI49
aI49
aI49
aI49
aI49
aI49
aI78
aI49
aI49
aI49
aI49
aI49
aI45
aI42
aI49
aI60
aI39
aI49
aI49
aI49
aI54
aI45
aI49
aI49
aI49
aI49
aI49
aI49
aI49
aI58
aI49
aI49
aI49
aI54
aI49
aI49
aI49
aI49
aI58
aI40
aI49
aI49
aI49
aI49
aI49
aI49
aI49
aI49
aI49
aI49
aI49
aI80
aI54
aI49
aI60
aI49
aI58
aI49
aI49
aI49
aI49
aI49
aI49
aI49
aI49
aI49
aI49
aI49
aI49
aI49
aI49
aI49
aI49
aI49
aI49
aI49
aI49
aI49
aI55
aI49
aI49
aI49
aI49
aI49
aI49
aI49
aI49
aI49
aI76
aI40
aI49
aI49
aI44
aI52
aI49
aI49
aI49
aI49
aI49
aI39
aI49
aI49
aI49
aI49
aI49
aI49
aI49
aI50
aI49
aI49
aI49
aI49
aI49
aI42
aI49
aI49
aI39
aI77
aI49
aI49
aI49
aI49
aI49
aI49
aI49
aI49
aI49
aI83
aI49
aI49
aI49
aI49
aI102
aI102
aI49
aI49
aI49
aI49
aI49
aI49
aI49
aI49
aI49
aI49
aI49
aI49
aI40
aI49
aI40
aI49
aI49
aI49
aI45
aI49
aI49
aI49
aI49
aI49
aI49
aI83
aI49
aI39
aI61
aI49
aI49
aI49
aI49
aI49
aI49
aI49
aI49
aI49
aI49
aI49
aI49
aI42
aI49
aI49
aI49
aI49
aI49
aI39
aI49
aI49
aI49
aI106
aI49
aI49
aI49
aI58
aI49
aI49
aI98
aI49
aI49
aI60
aI49
aI49
aI49
aI49
aI49
aI49
aI49
aI54
aI49
aI86
aI61
aI49
aI49
aI49
aI49
aI42
aI49
aI49
aI49
aI49
aI49
aI49
aI98
aI49
aI49
aI49
aI49
aI49
aI60
aI49
aI49
aI49
aI62
aI49
aI49
aI49
aI49
aI49
aI49
aI49
aI49
aI65
aI49
aI49
aI49
aI49
aI98
aI49
aI49
aI49
aI49
aI49
aI42
aI46
aI115
aI49
aI39
aI49
aI49
aI49
aI49
aI49
aI49
aI105
aI49
aI49
aI49
aI49
aI49
aI153
aI49
aI78
aI49
aI49
aI39
aI39
aI78
aI49
aI50
aI49
aI52
aI49
aI80
aI49
aI149
aI105
aI49
aI49
aI49
aI49
aI49
aI49
aI49
aI44
aI49
aI49
aI49
aI50
aI62
aI121
aI49
aI49
aI39
aI145
aI49
aI49
aI49
aI49
aI106
aI49
aI49
aI98
aI49
aI39
aI49
aI68
aI49
aI49
aI103
aI48
aI49
aI44
aI49
aI49
aI49
aI49
aI49
aI49
aI49
aI49
aI49
aI65
aI54
aI49
aI49
aI49
aI49
aI119
aI49
aI58
aI49
aI59
aI49
aI49
aI49
aI49
aI49
aI49
aI49
aI49
aI59
aI49
aI49
aI139
aI49
aI58
aI39
aI49
aI49
aI49
aI49
aI49
aI49
aI52
aI49
aI55
aI49
aI49
aI72
aI105
aI49
aI49
aI49
aI49
aI49
aI49
aI49
aI49
aI49
aI49
aI49
aI49
aI49
aI80
aI49
aI49
aI49
aI49
aI49
aI49
aI49
aI49
aI49
aI49
aI59
aI49
aI49
aI49
aI49
aI49
aI49
aI81
aI49
aI60
aI49
aI49
aI49
aI49
aI52
aI58
aI49
aI49
aI49
aI49
aI49
aI46
aI49
aI40
aI49
aI49
aI58
aI49
aI49
aI49
aI49
aI49
aI49
aI49
aI58
aI49
aI49
aI83
aI49
aI46
aI40
aI58
aI49
aI49
aI49
aI49
aI49
aI49
aI49
aI49
aI49
aI49
aI49
aI49
aI76
aI49
aI82
aI49
aI49
aI49
aI49
aI49
aI49
aI49
aI102
aI49
aI49
aI49
aI49
aI49
aI49
aI59
aI49
aI49
aI49
aI49
aI49
aI49
aI49
aI49
aI49
aI49
aI62
aI49
aI49
aI48
aI49
aI49
aI49
aI49
aI49
aI49
aI49
aI40
aI59
aI49
aI49
aI49
aI49
aI49
aI49
aI56
aI49
aI81
aI49
aI49
aI110
aI49
aI83
aI49
aI49
aI64
aI39
aI48
aI49
aI60
aI49
aI49
aI49
aI49
aI49
aI44
aI49
aI54
aI53
aI98
aI49
aI49
aI49
aI49
aI49
aI49
aI49
aI49
aI102
aI45
aI49
aI49
aI49
aI49
aI49
aI49
aI50
aI49
aI49
aI43
aI49
aI49
aI62
aI49
aI40
aI49
aI49
aI49
aI49
aI49
aI58
aI49
aI49
aI43
aI49
aI49
aI49
aI49
aI49
aI49
aI78
aI82
aI64
aI49
aI49
aI55
aI49
aI62
aI56
aI62
aI105
aI121
aI49
aI49
aI49
aI80
aI49
aI65
aI49
aI49
aI49
aI55
aI49
aI80
aI82
aI49
aI49
aI49
aI49
aI49
aI49
aI49
aI49
aI49
aI49
aI49
aI49
aI40
aI49
aI49
aI49
aI49
aI49
aI49
aI49
aI49
aI49
aI49
aI49
aI49
aI49
aI49
aI49
aI49
aI49
aI49
aI49
aI56
aI49
aI49
aI49
aI61
aI49
aI49
aI49
aI49
aI42
aI49
aI49
aI49
aI49
aI49
aI56
aI49
aI49
aI49
aI49
aI49
aI49
aI49
aI43
aI39
aI49
aI49
aI39
aI49
aI49
aI49
aI106
aI49
aI49
aI49
aI39
aI49
aI49
aI49
aI49
aI62
aI81
aI49
aI49
aI49
aI48
aI116
aI49
aI49
aI49
aI82
aI49
aI78
aI49
aI170
aI49
aI49
aI49
aI49
aI49
aI62
aI49
aI49
aI49
aI49
aI49
aI48
aI49
aI53
aI49
aI49
aI54
aI49
aI49
aI49
aI49
aI64
aI49
aI49
aI49
aI49
aI49
aI49
aI49
aI49
aI105
aI61
aI49
aI49
aI66
aI49
aI49
aI49
aI49
aI49
aI49
aI49
aI49
aI49
aI61
aI49
aI81
aI49
aI58
aI49
aI49
aI49
aI49
aI49
aI49
aI54
aI39
aI49
aI49
aI61
aI49
aI49
aI49
aI49
aI49
aI49
aI61
aI49
aI49
aI54
aI49
aI49
aI49
aI49
aI49
aI49
aI49
aI49
aI49
aI98
aI49
aI49
aI78
aI49
aI49
aI62
aI49
aI149
aI49
aI59
aI58
aI54
aI132
aI46
aI49
aI49
aI49
aI49
aI49
aI49
aI49
aI49
aI49
aI49
aI49
aI49
aI49
aI49
aI49
aI49
aI49
aI42
aI49
aI98
aI49
aI49
aI49
aI49
aI49
aI49
aI49
aI49
aI55
aI49
aI57
aI49
aI49
aI49
aI49
aI60
aI49
aI49
aI49
aI49
aI49
aI107
aI161
aI39
aI49
aI49
aI80
aI49
aI49
aI55
aI49
aI49
aI49
aI49
aI49
aI49
aI49
aI49
aI49
aI49
aI49
aI49
aI44
aI49
aI49
aI49
aI49
aI49
aI49
aI49
aI49
aI121
aI49
aI49
aI49
aI49
aI49
aI49
aI49
aI49
aI83
aI49
aI49
aI49
aI49
aI49
aI49
aI161
aI49
aI49
aI49
aI49
aI49
aI49
aI49
aI49
aI49
aI49
aI49
aI58
aI46
aI49
aI43
aI58
aI58
aI49
aI49
aI54
aI49
aI53
aI60
aI49
aI44
aI49
aI49
aI49
aI46
aI58
aI62
aI105
aI78
aI106
aI49
aI49
aI49
aI49
aI45
aI49
aI49
aI145
aI49
aI39
aI49
aI49
aI49
aI49
aI49
aI52
aI49
aI49
aI49
aI49
aI49
aI83
aI49
aI49
aI49
aI49
aI49
aI49
aI49
aI49
aI49
aI98
aI52
aI49
aI49
aI49
aI104
aI49
aI49
aI49
aI49
aI49
aI49
aI49
aI49
aI58
aI49
aI49
aI116
aI49
aI49
aI49
aI49
aI49
aI49
aI49
aI49
aI49
aI49
aI49
aI49
aI49
aI49
aI49
aI49
aI49
aI66
aI49
aI61
aI49
aI49
aI49
aI73
aI49
aI49
aI49
aI49
aI49
aI49
aI49
aI49
aI40
aI39
aI49
aI49
aI49
aI49
aI49
aI49
aI95
aI49
aI83
aI49
aI49
aI57
aI49
aI49
aI49
aI49
aI49
aI79
aI49
aI49
aI49
aI49
aI49
aI49
aI49
aI49
aI49
aI104
aI272
aI49
aI49
aI49
aI49
aI49
aI49
aI49
aI49
aI49
aI49
aI123
aI51
aI49
aI58
aI80
aI49
aI49
aI49
aI49
aI49
aI39
aI49
aI49
aI49
aI49
aI49
aI183
aI49
aI49
aI49
aI49
aI49
aI49
aI49
aI49
aI49
aI49
aI49
aI121
aI49
aI49
aI49
aI49
aI49
aI49
aI42
aI49
aI49
aI49
aI49
aI46
aI49
aI49
aI60
aI58
aI49
aI49
aI49
aI49
aI49
aI49
aI123
aI49
aI49
aI49
aI49
aI49
aI162
aI49
aI49
aI49
aI49
aI42
aI63
aI162
aI49
aI49
aI49
aI49
aI49
aI49
aI49
aI49
aI49
aI49
aI49
aI49
aI49
aI49
aI49
aI49
aI49
aI44
aI49
aI49
aI49
aI54
aI80
aI49
aI53
aI49
aI49
aI49
aI61
aI49
aI49
aI236
aI49
aI49
aI61
aI49
aI49
aI49
aI49
aI49
aI49
aI78
aI49
aI49
aI49
aI49
aI49
aI58
aI49
aI61
aI63
aI49
aI49
aI58
aI49
aI49
aI58
aI49
aI49
aI49
aI49
aI112
aI49
aI58
aI49
aI49
aI49
aI49
aI170
aI49
aI49
aI49
aI105
aI49
aI49
aI80
aI105
aI49
aI49
aI49
aI49
aI49
aI49
aI49
aI49
aI167
aI49
aI49
aI80
aI49
aI49
aI60
aI49
aI49
aI49
aI49
aI45
aI49
aI39
aI49
aI49
aI49
aI49
aI62
aI58
aI49
aI102
aI60
aI49
aI49
aI56
aI49
aI57
aI49
aI49
aI49
aI49
aI49
aI49
aI49
aI49
aI49
aI49
aI49
aI121
aI49
aI53
aI49
aI49
aI49
aI49
aI49
aI139
aI49
aI48
aI49
aI49
aI49
aI139
aI49
aI49
aI49
aI49
aI82
aI46
aI49
aI58
aI49
aI98
aI49
aI121
aI49
aI49
aI63
aI49
aI49
aI49
aI49
aI49
aI54
aI49
aI49
aI49
aI49
aI49
aI49
aI49
aI49
aI58
aI49
aI49
aI49
aI60
aI49
aI49
aI49
aI49
aI167
aI49
aI49
aI49
aI49
aI81
aI49
aI49
aI49
aI49
aI49
aI49
aI49
aI146
aI49
aI49
aI49
aI49
aI49
aI49
aI313
aI49
aI49
aI49
aI49
aI81
aI49
aI49
aI49
aI49
aI39
aI49
aI49
aI49
aI49
aI49
aI49
aI49
aI49
aI49
aI49
aI49
aI49
aI49
aI49
aI49
aI105
aI62
aI49
aI49
aI52
aI60
aI49
aI49
aI56
aI49
aI49
aI49
aI49
aI49
aI190
aI49
aI854
aI49
a.